 nodehun

 Timestamp is 5918ad93 (Sun May 14 21:18:43 2017)

 Preferred load address is 10000000

 Start         Length     Name                   Class
 0001:00000000 000000e0H .text$di                CODE
 0001:000000e0 00042a05H .text$mn                CODE
 0001:00042ae5 000002dbH .text$x                 CODE
 0001:00042dc0 00000061H .text$yd                CODE
 0002:00000000 0000020cH .idata$5                DATA
 0002:0000020c 00000004H .00cfg                  DATA
 0002:00000210 00000004H .CRT$XCA                DATA
 0002:00000214 0000001cH .CRT$XCC                DATA
 0002:00000230 00000008H .CRT$XCL                DATA
 0002:00000238 00000008H .CRT$XCU                DATA
 0002:00000240 00000004H .CRT$XCZ                DATA
 0002:00000244 00000004H .CRT$XIA                DATA
 0002:00000248 0000001cH .CRT$XIC                DATA
 0002:00000264 00000004H .CRT$XIZ                DATA
 0002:00000268 00000004H .CRT$XLA                DATA
 0002:0000026c 00000004H .CRT$XLZ                DATA
 0002:00000270 00000004H .CRT$XPA                DATA
 0002:00000274 00000008H .CRT$XPX                DATA
 0002:0000027c 00000004H .CRT$XPXA               DATA
 0002:00000280 00000004H .CRT$XPZ                DATA
 0002:00000284 00000004H .CRT$XTA                DATA
 0002:00000288 00000008H .CRT$XTZ                DATA
 0002:00000290 0000d144H .rdata                  DATA
 0002:0000d3d4 00000018H .rdata$T                DATA
 0002:0000d3ec 00000934H .rdata$r                DATA
 0002:0000dd20 0000005cH .rdata$sxdata           DATA
 0002:0000dd7c 00000414H .rdata$zzzdbg           DATA
 0002:0000e190 00000004H .rtc$IAA                DATA
 0002:0000e194 00000004H .rtc$IZZ                DATA
 0002:0000e198 00000004H .rtc$TAA                DATA
 0002:0000e19c 00000004H .rtc$TZZ                DATA
 0002:0000e1a0 00000be0H .xdata$x                DATA
 0002:0000ed80 00000054H .edata                  DATA
 0002:0000edd4 00000028H .idata$2                DATA
 0002:0000edfc 00000014H .idata$3                DATA
 0002:0000ee10 0000020cH .idata$4                DATA
 0002:0000f01c 000010d4H .idata$6                DATA
 0003:00000000 00020e80H .data                   DATA
 0003:00020e80 00000448H .data$r                 DATA
 0003:000212c8 00000eb8H .bss                    DATA
 0004:00000000 000000c8H .gfids$x                DATA
 0004:000000c8 00000228H .gfids$y                DATA
 0005:00000000 00000004H .tls                    DATA
 0005:00000004 00000004H .tls$                   DATA
 0005:00000008 00000001H .tls$ZZZ                DATA
 0006:00000000 00000060H .rsrc$01                DATA
 0006:00000060 00000180H .rsrc$02                DATA

  Address         Publics by Value              Rva+Base       Lib:Object

 0000:00000000       ___guard_fids_count        00000000     <absolute>
 0000:00000000       ___guard_longjmp_count     00000000     <absolute>
 0000:00000000       __except_list              00000000     <absolute>
 0000:00000000       ___guard_longjmp_table     00000000     <absolute>
 0000:00000000       ___guard_iat_table         00000000     <absolute>
 0000:00000000       ___guard_iat_count         00000000     <absolute>
 0000:00000000       ___guard_fids_table        00000000     <absolute>
 0000:00000000       ___dynamic_value_reloc_table 00000000     <absolute>
 0000:00000017       ___safe_se_handler_count   00000017     <absolute>
 0000:0000002c       __tls_array                0000002c     <absolute>
 0000:00000100       ___guard_flags             00000100     <absolute>
 0000:00000000       ___ImageBase               10000000     <linker-defined>
 0001:000000e0       ?NODE_SET_METHOD@node@@YAXV?$Local@VTemplate@v8@@@v8@@PBDP6AXABV?$FunctionCallbackInfo@VValue@v8@@@3@@Z@Z 100010e0 f i nodehun.obj
 0001:00000170       ?NODE_SET_PROTOTYPE_METHOD@node@@YAXV?$Local@VFunctionTemplate@v8@@@v8@@PBDP6AXABV?$FunctionCallbackInfo@VValue@v8@@@3@@Z@Z 10001170 f i nodehun.obj
 0001:00000230       ?Wrap@ObjectWrap@node@@IAEXV?$Local@VObject@v8@@@v8@@@Z 10001230 f i nodehun.obj
 0001:000002e0       ?Ref@ObjectWrap@node@@MAEXXZ 100012e0 f i nodehun.obj
 0001:00000310       ?Unref@ObjectWrap@node@@MAEXXZ 10001310 f i nodehun.obj
 0001:000003a0       ?WeakCallback@ObjectWrap@node@@CAXABV?$WeakCallbackInfo@VObjectWrap@node@@@v8@@@Z 100013a0 f i nodehun.obj
 0001:000003f0       ??_GObjectWrap@node@@UAEPAXI@Z 100013f0 f i nodehun.obj
 0001:000003f0       ??_EObjectWrap@node@@UAEPAXI@Z 100013f0 f i * CIL library *:* CIL module *
 0001:00000470       ??1SpellDictionary@Nodehun@@UAE@XZ 10001470 f i nodehun.obj
 0001:00000510       ??_GSpellDictionary@Nodehun@@UAEPAXI@Z 10001510 f i nodehun.obj
 0001:00000510       ??_ESpellDictionary@Nodehun@@UAEPAXI@Z 10001510 f i * CIL library *:* CIL module *
 0001:00000530       ?Init@SpellDictionary@Nodehun@@SAXV?$Local@VObject@v8@@@v8@@0@Z 10001530 f   nodehun.obj
 0001:00000790       ?createNewNodehun@SpellDictionary@Nodehun@@KAXABV?$FunctionCallbackInfo@VValue@v8@@@v8@@@Z 10001790 f   nodehun.obj
 0001:00000a30       ?createNewNodehunWork@SpellDictionary@Nodehun@@KAXPAUuv_work_s@@@Z 10001a30 f   nodehun.obj
 0001:00000a70       ?createNewNodehunFinish@SpellDictionary@Nodehun@@KAXPAUuv_work_s@@H@Z 10001a70 f   nodehun.obj
 0001:00000b80       ??0SpellDictionary@Nodehun@@QAE@PBD0@Z 10001b80 f   nodehun.obj
 0001:00000bc0       ?New@SpellDictionary@Nodehun@@KAXABV?$FunctionCallbackInfo@VValue@v8@@@v8@@@Z 10001bc0 f   nodehun.obj
 0001:00000e10       ?isCorrect@SpellDictionary@Nodehun@@KAXABV?$FunctionCallbackInfo@VValue@v8@@@v8@@@Z 10001e10 f   nodehun.obj
 0001:00001040       ?isCorrectSync@SpellDictionary@Nodehun@@KAXABV?$FunctionCallbackInfo@VValue@v8@@@v8@@@Z 10002040 f   nodehun.obj
 0001:00001190       ?checkCorrect@SpellDictionary@Nodehun@@KAXPAUuv_work_s@@@Z 10002190 f   nodehun.obj
 0001:000011e0       ?sendCorrect@SpellDictionary@Nodehun@@KAXPAUuv_work_s@@H@Z 100021e0 f   nodehun.obj
 0001:00001330       ?spellSuggest@SpellDictionary@Nodehun@@KAXABV?$FunctionCallbackInfo@VValue@v8@@@v8@@@Z 10002330 f   nodehun.obj
 0001:00001560       ?spellSuggestSync@SpellDictionary@Nodehun@@KAXABV?$FunctionCallbackInfo@VValue@v8@@@v8@@@Z 10002560 f   nodehun.obj
 0001:00001720       ?spellSuggestions@SpellDictionary@Nodehun@@KAXABV?$FunctionCallbackInfo@VValue@v8@@@v8@@@Z 10002720 f   nodehun.obj
 0001:00001950       ?spellSuggestionsSync@SpellDictionary@Nodehun@@KAXABV?$FunctionCallbackInfo@VValue@v8@@@v8@@@Z 10002950 f   nodehun.obj
 0001:00001b50       ?checkSuggestions@SpellDictionary@Nodehun@@KAXPAUuv_work_s@@@Z 10002b50 f   nodehun.obj
 0001:00001bc0       ?sendSuggestions@SpellDictionary@Nodehun@@KAXPAUuv_work_s@@H@Z 10002bc0 f   nodehun.obj
 0001:00001e20       ?addDictionary@SpellDictionary@Nodehun@@KAXABV?$FunctionCallbackInfo@VValue@v8@@@v8@@@Z 10002e20 f   nodehun.obj
 0001:00002070       ?addDictionarySync@SpellDictionary@Nodehun@@KAXABV?$FunctionCallbackInfo@VValue@v8@@@v8@@@Z 10003070 f   nodehun.obj
 0001:00002150       ?addDict@SpellDictionary@Nodehun@@IAE_NPBD@Z 10003150 f   nodehun.obj
 0001:000021d0       ?addDictionaryWork@SpellDictionary@Nodehun@@KAXPAUuv_work_s@@@Z 100031d0 f   nodehun.obj
 0001:000021f0       ?addDictionaryFinish@SpellDictionary@Nodehun@@KAXPAUuv_work_s@@H@Z 100031f0 f   nodehun.obj
 0001:00002300       ?addWord@SpellDictionary@Nodehun@@KAXABV?$FunctionCallbackInfo@VValue@v8@@@v8@@@Z 10003300 f   nodehun.obj
 0001:00002310       ?addWordSync@SpellDictionary@Nodehun@@KAXABV?$FunctionCallbackInfo@VValue@v8@@@v8@@@Z 10003310 f   nodehun.obj
 0001:00002320       ?removeWord@SpellDictionary@Nodehun@@KAXABV?$FunctionCallbackInfo@VValue@v8@@@v8@@@Z 10003320 f   nodehun.obj
 0001:00002330       ?removeWordSync@SpellDictionary@Nodehun@@KAXABV?$FunctionCallbackInfo@VValue@v8@@@v8@@@Z 10003330 f   nodehun.obj
 0001:00002340       ?addRemoveWordInit@SpellDictionary@Nodehun@@KAXABV?$FunctionCallbackInfo@VValue@v8@@@v8@@_N@Z 10003340 f   nodehun.obj
 0001:00002660       ??_GWordData@Nodehun@@QAEPAXI@Z 10003660 f i nodehun.obj
 0001:00002680       ?addRemoveWordInitSync@SpellDictionary@Nodehun@@KAXABV?$FunctionCallbackInfo@VValue@v8@@@v8@@_N@Z 10003680 f   nodehun.obj
 0001:000027a0       ?addRemoveWord@SpellDictionary@Nodehun@@IAE_NPBD_N@Z 100037a0 f   nodehun.obj
 0001:00002820       ?addRemoveWordWork@SpellDictionary@Nodehun@@KAXPAUuv_work_s@@@Z 10003820 f   nodehun.obj
 0001:00002850       ?addRemoveWordFinish@SpellDictionary@Nodehun@@KAXPAUuv_work_s@@H@Z 10003850 f   nodehun.obj
 0001:000029b0       ?stem@SpellDictionary@Nodehun@@KAXABV?$FunctionCallbackInfo@VValue@v8@@@v8@@@Z 100039b0 f   nodehun.obj
 0001:00002be0       ?stemSync@SpellDictionary@Nodehun@@KAXABV?$FunctionCallbackInfo@VValue@v8@@@v8@@@Z 10003be0 f   nodehun.obj
 0001:00002da0       ?stemWord@SpellDictionary@Nodehun@@IAEHPAPAPADPBD@Z 10003da0 f   nodehun.obj
 0001:00002e00       ?stemWork@SpellDictionary@Nodehun@@KAXPAUuv_work_s@@@Z 10003e00 f   nodehun.obj
 0001:00002e70       ?stemFinish@SpellDictionary@Nodehun@@KAXPAUuv_work_s@@H@Z 10003e70 f   nodehun.obj
 0001:00002e70       ?analyzeFinish@SpellDictionary@Nodehun@@KAXPAUuv_work_s@@H@Z 10003e70 f   nodehun.obj
 0001:00003050       ?generate@SpellDictionary@Nodehun@@KAXABV?$FunctionCallbackInfo@VValue@v8@@@v8@@@Z 10004050 f   nodehun.obj
 0001:000032e0       ?generateSync@SpellDictionary@Nodehun@@KAXABV?$FunctionCallbackInfo@VValue@v8@@@v8@@@Z 100042e0 f   nodehun.obj
 0001:00003500       ?generateWord@SpellDictionary@Nodehun@@IAEHPAPAPADPBD1@Z 10004500 f   nodehun.obj
 0001:00003570       ?generateWork@SpellDictionary@Nodehun@@KAXPAUuv_work_s@@@Z 10004570 f   nodehun.obj
 0001:00003620       ?generateFinish@SpellDictionary@Nodehun@@KAXPAUuv_work_s@@H@Z 10004620 f   nodehun.obj
 0001:00003880       ?analyze@SpellDictionary@Nodehun@@KAXABV?$FunctionCallbackInfo@VValue@v8@@@v8@@@Z 10004880 f   nodehun.obj
 0001:00003ab0       ?analyzeSync@SpellDictionary@Nodehun@@KAXABV?$FunctionCallbackInfo@VValue@v8@@@v8@@@Z 10004ab0 f   nodehun.obj
 0001:00003c90       ?analyzeWork@SpellDictionary@Nodehun@@KAXPAUuv_work_s@@@Z 10004c90 f   nodehun.obj
 0001:00003cf0       ?append@?$basic_string@DU?$char_traits@D@std@@V?$allocator@D@2@@std@@QAEAAV12@PBD@Z 10004cf0 f i nodehun.obj
 0001:00003d30       ??1?$basic_string@DU?$char_traits@D@std@@V?$allocator@D@2@@std@@QAE@XZ 10004d30 f i nodehun.obj
 0001:00003da0       ?_Tidy@?$basic_string@DU?$char_traits@D@std@@V?$allocator@D@2@@std@@QAEX_NI@Z 10004da0 f i nodehun.obj
 0001:00003e30       ?append@?$basic_string@DU?$char_traits@D@std@@V?$allocator@D@2@@std@@QAEAAV12@PBDI@Z 10004e30 f i nodehun.obj
 0001:00003f60       ?append@?$basic_string@DU?$char_traits@D@std@@V?$allocator@D@2@@std@@QAEAAV12@ABV12@II@Z 10004f60 f i nodehun.obj
 0001:00004060       ?_Xlen@?$basic_string@DU?$char_traits@D@std@@V?$allocator@D@2@@std@@QBEXXZ 10005060 f i nodehun.obj
 0001:00004070       ?_Grow@?$basic_string@DU?$char_traits@D@std@@V?$allocator@D@2@@std@@QAE_NI_N@Z 10005070 f i nodehun.obj
 0001:000040e0       ?_Copy@?$basic_string@DU?$char_traits@D@std@@V?$allocator@D@2@@std@@QAEXII@Z 100050e0 f i nodehun.obj
 0001:00004210       ??$Reset@VFunction@v8@@@?$PersistentBase@VFunction@v8@@@v8@@QAEXPAVIsolate@1@ABV?$Local@VFunction@v8@@@1@@Z 10005210 f i nodehun.obj
 0001:00004250       ??$Unwrap@VSpellDictionary@Nodehun@@@ObjectWrap@node@@SAPAVSpellDictionary@Nodehun@@V?$Local@VObject@v8@@@v8@@@Z 10005250 f i nodehun.obj
 0001:000042c0       ___local_stdio_printf_options 100052c0 f i hunspell:hunspell.obj
 0001:000042d0       _sprintf                   100052d0 f i hunspell:hunspell.obj
 0001:00004310       ?Init@Hunspell@@AAEXPBD00_N@Z 10005310 f   hunspell:hunspell.obj
 0001:00004480       ??1Hunspell@@QAE@XZ        10005480 f   hunspell:hunspell.obj
 0001:00004540       ?cleanword2@Hunspell@@AAEHPADPBDPAUw_char@@PAH33@Z 10005540 f   hunspell:hunspell.obj
 0001:00004650       ?cleanword@Hunspell@@AAEHPADPBDPAH2@Z 10005650 f   hunspell:hunspell.obj
 0001:00004940       ?mkallcap@Hunspell@@AAEXPAD@Z 10005940 f   hunspell:hunspell.obj
 0001:00004a90       ?mkallsmall2@Hunspell@@AAEHPADPAUw_char@@H@Z 10005a90 f   hunspell:hunspell.obj
 0001:00004b90       ?spellsharps@Hunspell@@AAEPAUhentry@@PAD0HH0PAHPAPAD@Z 10005b90 f   hunspell:hunspell.obj
 0001:00004c80       ?is_keepcase@Hunspell@@AAEHPBUhentry@@@Z 10005c80 f   hunspell:hunspell.obj
 0001:00004cc0       ?insert_sug@Hunspell@@AAEHPAPAPADPADH@Z 10005cc0 f   hunspell:hunspell.obj
 0001:00004d50       ?spell@Hunspell@@QAEHPBDPAHPAPAD@Z 10005d50 f   hunspell:hunspell.obj
 0001:000056c0       ?checkword@Hunspell@@AAEPAUhentry@@PBDPAHPAPAD@Z 100066c0 f   hunspell:hunspell.obj
 0001:00005bd0       ?suggest@Hunspell@@QAEHPAPAPADPBD@Z 10006bd0 f   hunspell:hunspell.obj
 0001:00006d10       ?stem@Hunspell@@QAEHPAPAPADPAPADH@Z 10007d10 f   hunspell:hunspell.obj
 0001:00007120       ?stem@Hunspell@@QAEHPAPAPADPBD@Z 10008120 f   hunspell:hunspell.obj
 0001:00007160       ?mkinitcap@Hunspell@@AAEXPAD@Z 10008160 f   hunspell:hunspell.obj
 0001:00007240       ?mkinitcap2@Hunspell@@AAEHPADPAUw_char@@H@Z 10008240 f   hunspell:hunspell.obj
 0001:000072f0       ?mkinitsmall2@Hunspell@@AAEHPADPAUw_char@@H@Z 100082f0 f   hunspell:hunspell.obj
 0001:000073a0       ?cat_result@Hunspell@@AAEXPAD0@Z 100083a0 f   hunspell:hunspell.obj
 0001:000073e0       ?analyze@Hunspell@@QAEHPAPAPADPBD@Z 100083e0 f   hunspell:hunspell.obj
 0001:00007b60       ?generate@Hunspell@@QAEHPAPAPADPBDPAPADH@Z 10008b60 f   hunspell:hunspell.obj
 0001:00007d60       ?generate@Hunspell@@QAEHPAPAPADPBD1@Z 10008d60 f   hunspell:hunspell.obj
 0001:00007db0       ?get_xml_par@Hunspell@@AAEHPADPBDH@Z 10008db0 f   hunspell:hunspell.obj
 0001:00007ec0       ?get_xml_pos@Hunspell@@AAEPBDPBD0@Z 10008ec0 f   hunspell:hunspell.obj
 0001:00007f10       ?check_xml_par@Hunspell@@AAEHPBD00@Z 10008f10 f   hunspell:hunspell.obj
 0001:00007fb0       ?get_xml_list@Hunspell@@AAEHPAPAPADPADPBD@Z 10008fb0 f   hunspell:hunspell.obj
 0001:000080a0       ?spellml@Hunspell@@AAEHPAPAPADPBD@Z 100090a0 f   hunspell:hunspell.obj
 0001:000083f0       @_guard_check_icall_nop@4  100093f0 f   LIBCMT:guard_support.obj
 0001:000083f0       ?_Doraise@exception@stdext@@MBEXXZ 100093f0 f   hunspell:strmgr.obj
 0001:000083f0       ?_Lock@?$basic_streambuf@DU?$char_traits@D@std@@@std@@UAEXXZ 100093f0 f   libcpmt:cout.obj
 0001:000083f0       ?_Unlock@?$basic_streambuf@DU?$char_traits@D@std@@@std@@UAEXXZ 100093f0 f   libcpmt:cout.obj
 0001:000083f0       ___except_validate_context_record 100093f0 f   libvcruntime:jbcxrval.obj
 0001:000083f0       ___except_validate_jump_buffer 100093f0 f   libvcruntime:jbcxrval.obj
 0001:00008400       ?u16_u8@@YAPADPADHPBUw_char@@H@Z 10009400 f   hunspell:csutil.obj
 0001:000084a0       ?u8_u16@@YAHPAUw_char@@HPBD@Z 100094a0 f   hunspell:csutil.obj
 0001:000086e0       ?flag_qsort@@YAXQAGHH@Z    100096e0 f   hunspell:csutil.obj
 0001:00008750       ?flag_bsearch@@YAHQAGGH@Z  10009750 f   hunspell:csutil.obj
 0001:000087a0       ?mystrsep@@YAPADPAPADD@Z   100097a0 f   hunspell:csutil.obj
 0001:00008810       ?mystrdup@@YAPADPBD@Z      10009810 f   hunspell:csutil.obj
 0001:00008870       ?mystrcat@@YAPADPADPBDH@Z  10009870 f   hunspell:csutil.obj
 0001:000088d0       ?mychomp@@YAXPAD@Z         100098d0 f   hunspell:csutil.obj
 0001:00008910       ?myrevstrdup@@YAPADPBD@Z   10009910 f   hunspell:csutil.obj
 0001:00008970       ?line_tok@@YAHPBDPAPAPADD@Z 10009970 f   hunspell:csutil.obj
 0001:00008b00       ?line_uniq@@YAPADPADD@Z    10009b00 f   hunspell:csutil.obj
 0001:00008c40       ?line_uniq_app@@YAPADPAPADD@Z 10009c40 f   hunspell:csutil.obj
 0001:00008e40       ?strlinecat@@YAXPADPBD@Z   10009e40 f   hunspell:csutil.obj
 0001:00008ef0       ?morphcmp@@YAHPBD0@Z       10009ef0 f   hunspell:csutil.obj
 0001:000091f0       ?get_sfxcount@@YAHPBD@Z    1000a1f0 f   hunspell:csutil.obj
 0001:00009280       ?mystrrep@@YAPADPADPBD1@Z  1000a280 f   hunspell:csutil.obj
 0001:000093b0       ?reverseword@@YAHPAD@Z     1000a3b0 f   hunspell:csutil.obj
 0001:000093e0       ?reverseword_utf@@YAHPAD@Z 1000a3e0 f   hunspell:csutil.obj
 0001:00009490       ?uniqlist@@YAHPAPADH@Z     1000a490 f   hunspell:csutil.obj
 0001:00009540       ?freelist@@YAXPAPAPADH@Z   1000a540 f   hunspell:csutil.obj
 0001:00009590       ?mkallsmall_utf@@YAXPAUw_char@@HH@Z 1000a590 f   hunspell:csutil.obj
 0001:00009650       ?mkallcap_utf@@YAXPAUw_char@@HH@Z 1000a650 f   hunspell:csutil.obj
 0001:00009710       ?get_current_cs@@YAPAUcs_info@@PBD@Z 1000a710 f   hunspell:csutil.obj
 0001:00009810       ?get_lang_num@@YAHPBD@Z    1000a810 f   hunspell:csutil.obj
 0001:00009880       ?initialize_utf_tbl@@YAHXZ 1000a880 f   hunspell:csutil.obj
 0001:00009920       ?get_captype@@YAHPADHPAUcs_info@@@Z 1000a920 f   hunspell:csutil.obj
 0001:00009a00       ?get_captype_utf8@@YAHPAUw_char@@HH@Z 1000aa00 f   hunspell:csutil.obj
 0001:00009bb0       ?remove_ignored_chars_utf@@YAXPADQAGH@Z 1000abb0 f   hunspell:csutil.obj
 0001:00009c90       ?remove_ignored_chars@@YAXPAD0@Z 1000ac90 f   hunspell:csutil.obj
 0001:00009cd0       ?parse_string@@YAHPADPAPADH@Z 1000acd0 f   hunspell:csutil.obj
 0001:00009e10       ?parse_array@@YAHPADPAPADPAPAGPAHHH@Z 1000ae10 f   hunspell:csutil.obj
 0001:00009eb0       ?HENTRY_DATA@@YAPADPAUhentry@@@Z 1000aeb0 f i hunspell:hashmgr.obj
 0001:00009ed0       ?Init@HashMgr@@AAEXPBD00_N@Z 1000aed0 f   hunspell:hashmgr.obj
 0001:00009fa0       ??1HashMgr@@QAE@XZ         1000afa0 f   hunspell:hashmgr.obj
 0001:0000a180       ?lookup@HashMgr@@QBEPAUhentry@@PBD@Z 1000b180 f   hunspell:hashmgr.obj
 0001:0000a1f0       ?add_word@HashMgr@@AAEHPBDHHPAGH0_N@Z 1000b1f0 f   hunspell:hashmgr.obj
 0001:0000a510       ?add_hidden_capitalized_word@HashMgr@@AAEHPADHHPAGH0H@Z 1000b510 f   hunspell:hashmgr.obj
 0001:0000a6c0       ?get_clen_and_captype@HashMgr@@AAEHPBDHPAH@Z 1000b6c0 f   hunspell:hashmgr.obj
 0001:0000a750       ?remove@HashMgr@@QAEHPBD@Z 1000b750 f   hunspell:hashmgr.obj
 0001:0000a840       ?remove_forbidden_flag@HashMgr@@AAEHPBD@Z 1000b840 f   hunspell:hashmgr.obj
 0001:0000a930       ?add@HashMgr@@QAEHPBD@Z    1000b930 f   hunspell:hashmgr.obj
 0001:0000a9a0       ?load_tables@HashMgr@@AAEHPBD0_N@Z 1000b9a0 f   hunspell:hashmgr.obj
 0001:0000adb0       ?hash@HashMgr@@QBEHPBD@Z   1000bdb0 f   hunspell:hashmgr.obj
 0001:0000ae10       ?decode_flags@HashMgr@@QAEHPAPAGPADPAVIStrMgr@@@Z 1000be10 f   hunspell:hashmgr.obj
 0001:0000b050       ?decode_flag@HashMgr@@QAEGPBD@Z 1000c050 f   hunspell:hashmgr.obj
 0001:0000b0f0       ?encode_flag@HashMgr@@QAEPADG@Z 1000c0f0 f   hunspell:hashmgr.obj
 0001:0000b230       ?load_config@HashMgr@@AAEHPBD0_N@Z 1000c230 f   hunspell:hashmgr.obj
 0001:0000b680       ?parse_aliasf@HashMgr@@AAEHPADPAVIStrMgr@@@Z 1000c680 f   hunspell:hashmgr.obj
 0001:0000b9e0       ?get_aliasf@HashMgr@@QAEHHPAPAGPAVIStrMgr@@@Z 1000c9e0 f   hunspell:hashmgr.obj
 0001:0000ba30       ?parse_aliasm@HashMgr@@AAEHPADPAVIStrMgr@@@Z 1000ca30 f   hunspell:hashmgr.obj
 0001:0000bd50       ?get_aliasm@HashMgr@@QAEPADH@Z 1000cd50 f   hunspell:hashmgr.obj
 0001:0000bd80       ??1RepList@@QAE@XZ         1000cd80 f   hunspell:replist.obj
 0001:0000bdd0       ?near@RepList@@QAEHPBD@Z   1000cdd0 f   hunspell:replist.obj
 0001:0000be40       ?add@RepList@@QAEHPAD0@Z   1000ce40 f   hunspell:replist.obj
 0001:0000bf30       ?conv@RepList@@QAEHPBDPAD@Z 1000cf30 f   hunspell:replist.obj
 0001:0000c060       ?HENTRY_DATA2@@YAPBDPBUhentry@@@Z 1000d060 f i hunspell:suggestmgr.obj
 0001:0000c080       ?HENTRY_FIND@@YAPADPAUhentry@@PBD@Z 1000d080 f i hunspell:suggestmgr.obj
 0001:0000c0c0       ??0SuggestMgr@@QAE@PBDHPAVAffixMgr@@@Z 1000d0c0 f   hunspell:suggestmgr.obj
 0001:0000c2e0       ??1SuggestMgr@@QAE@XZ      1000d2e0 f   hunspell:suggestmgr.obj
 0001:0000c360       ?testsug@SuggestMgr@@AAEHPAPADPBDHHHPAHPAJ@Z 1000d360 f   hunspell:suggestmgr.obj
 0001:0000c470       ?suggest@SuggestMgr@@QAEHPAPAPADPBDHPAH@Z 1000d470 f   hunspell:suggestmgr.obj
 0001:0000c920       ?capchars_utf@SuggestMgr@@AAEHPAPADPBUw_char@@HHH@Z 1000d920 f   hunspell:suggestmgr.obj
 0001:0000c9e0       ?capchars@SuggestMgr@@AAEHPAPADPBDHH@Z 1000d9e0 f   hunspell:suggestmgr.obj
 0001:0000caa0       ?mapchars@SuggestMgr@@AAEHPAPADPBDHH@Z 1000daa0 f   hunspell:suggestmgr.obj
 0001:0000cb70       ?map_related@SuggestMgr@@AAEHPBDPADHHPAPADHHPBUmapentry@@HPAHPAJ@Z 1000db70 f   hunspell:suggestmgr.obj
 0001:0000cdf0       ?replchars@SuggestMgr@@AAEHPAPADPBDHH@Z 1000ddf0 f   hunspell:suggestmgr.obj
 0001:0000d130       ?doubletwochars@SuggestMgr@@AAEHPAPADPBDHH@Z 1000e130 f   hunspell:suggestmgr.obj
 0001:0000d230       ?doubletwochars_utf@SuggestMgr@@AAEHPAPADPBUw_char@@HHH@Z 1000e230 f   hunspell:suggestmgr.obj
 0001:0000d3b0       ?badcharkey@SuggestMgr@@AAEHPAPADPBDHH@Z 1000e3b0 f   hunspell:suggestmgr.obj
 0001:0000d560       ?badcharkey_utf@SuggestMgr@@AAEHPAPADPBUw_char@@HHH@Z 1000e560 f   hunspell:suggestmgr.obj
 0001:0000d7f0       ?badchar@SuggestMgr@@AAEHPAPADPBDHH@Z 1000e7f0 f   hunspell:suggestmgr.obj
 0001:0000da00       ?badchar_utf@SuggestMgr@@AAEHPAPADPBUw_char@@HHH@Z 1000ea00 f   hunspell:suggestmgr.obj
 0001:0000db60       ?extrachar_utf@SuggestMgr@@AAEHPAPADPBUw_char@@HHH@Z 1000eb60 f   hunspell:suggestmgr.obj
 0001:0000dca0       ?extrachar@SuggestMgr@@AAEHPAPADPBDHH@Z 1000eca0 f   hunspell:suggestmgr.obj
 0001:0000de50       ?forgotchar@SuggestMgr@@AAEHPAPADPBDHH@Z 1000ee50 f   hunspell:suggestmgr.obj
 0001:0000e060       ?forgotchar_utf@SuggestMgr@@AAEHPAPADPBUw_char@@HHH@Z 1000f060 f   hunspell:suggestmgr.obj
 0001:0000e1c0       ?twowords@SuggestMgr@@AAEHPAPADPBDHH@Z 1000f1c0 f   hunspell:suggestmgr.obj
 0001:0000e590       ?swapchar@SuggestMgr@@AAEHPAPADPBDHH@Z 1000f590 f   hunspell:suggestmgr.obj
 0001:0000e700       ?swapchar_utf@SuggestMgr@@AAEHPAPADPBUw_char@@HHH@Z 1000f700 f   hunspell:suggestmgr.obj
 0001:0000e940       ?longswapchar@SuggestMgr@@AAEHPAPADPBDHH@Z 1000f940 f   hunspell:suggestmgr.obj
 0001:0000eb50       ?longswapchar_utf@SuggestMgr@@AAEHPAPADPBUw_char@@HHH@Z 1000fb50 f   hunspell:suggestmgr.obj
 0001:0000ecb0       ?movechar@SuggestMgr@@AAEHPAPADPBDHH@Z 1000fcb0 f   hunspell:suggestmgr.obj
 0001:0000ee60       ?movechar_utf@SuggestMgr@@AAEHPAPADPBUw_char@@HHH@Z 1000fe60 f   hunspell:suggestmgr.obj
 0001:0000f0c0       ?ngsuggest@SuggestMgr@@QAEHPAPADPADHPAPAVHashMgr@@H@Z 100100c0 f   hunspell:suggestmgr.obj
 0001:00010340       ?checkword@SuggestMgr@@AAEHPBDHHPAHPAJ@Z 10011340 f   hunspell:suggestmgr.obj
 0001:00010680       ?check_forbidden@SuggestMgr@@AAEHPBDH@Z 10011680 f   hunspell:suggestmgr.obj
 0001:00010750       ?suggest_morph@SuggestMgr@@QAEPADPBD@Z 10011750 f   hunspell:suggestmgr.obj
 0001:00010a70       ?suggest_hentry_gen@SuggestMgr@@AAEPADPAUhentry@@PAD@Z 10011a70 f   hunspell:suggestmgr.obj
 0001:00010dd0       ?suggest_gen@SuggestMgr@@QAEPADPAPADHPAD@Z 10011dd0 f   hunspell:suggestmgr.obj
 0001:00011400       ?ngram@SuggestMgr@@AAEHHPADPBDH@Z 10012400 f   hunspell:suggestmgr.obj
 0001:00011740       ?leftcommonsubstring@SuggestMgr@@AAEHPADPBD@Z 10012740 f   hunspell:suggestmgr.obj
 0001:00011940       ?commoncharacterpositions@SuggestMgr@@AAEHPADPBDPAH@Z 10012940 f   hunspell:suggestmgr.obj
 0001:00011b40       ?bubblesort@SuggestMgr@@AAEXPAPAD0PAHH@Z 10012b40 f   hunspell:suggestmgr.obj
 0001:00011c30       ?lcs@SuggestMgr@@AAEXPBD0PAH1PAPAD@Z 10012c30 f   hunspell:suggestmgr.obj
 0001:00011e90       ?lcslen@SuggestMgr@@AAEHPBD0@Z 10012e90 f   hunspell:suggestmgr.obj
 0001:00011f10       ?Init@AffixMgr@@AAEXPBDPAPAVHashMgr@@PAH0_N@Z 10012f10 f   hunspell:affixmgr.obj
 0001:000121c0       ??1AffixMgr@@QAE@XZ        100131c0 f   hunspell:affixmgr.obj
 0001:00012870       ?parse_file@AffixMgr@@AAEHPBD0_N@Z 10013870 f   hunspell:affixmgr.obj
 0001:00013620       ?build_pfxtree@AffixMgr@@AAEHPAVPfxEntry@@@Z 10014620 f   hunspell:affixmgr.obj
 0001:000136e0       ?build_sfxtree@AffixMgr@@AAEHPAVSfxEntry@@@Z 100146e0 f   hunspell:affixmgr.obj
 0001:000137c0       ?process_pfx_tree_to_list@AffixMgr@@AAEHXZ 100147c0 f   hunspell:affixmgr.obj
 0001:00013810       ?process_pfx_in_order@AffixMgr@@AAEPAVPfxEntry@@PAV2@0@Z 10014810 f   hunspell:affixmgr.obj
 0001:00013850       ?process_sfx_tree_to_list@AffixMgr@@AAEHXZ 10014850 f   hunspell:affixmgr.obj
 0001:000138a0       ?process_sfx_in_order@AffixMgr@@AAEPAVSfxEntry@@PAV2@0@Z 100148a0 f   hunspell:affixmgr.obj
 0001:000138e0       ?process_pfx_order@AffixMgr@@AAEHXZ 100148e0 f   hunspell:affixmgr.obj
 0001:000139f0       ?process_sfx_order@AffixMgr@@AAEHXZ 100149f0 f   hunspell:affixmgr.obj
 0001:00013b10       ?debugflag@AffixMgr@@AAEXPADG@Z 10014b10 f   hunspell:affixmgr.obj
 0001:00013b60       ?condlen@AffixMgr@@AAEHPAD@Z 10014b60 f   hunspell:affixmgr.obj
 0001:00013bb0       ?encodeit@AffixMgr@@AAEHAAUaffentry@@PAD@Z 10014bb0 f   hunspell:affixmgr.obj
 0001:00013c50       ?prefix_check@AffixMgr@@QAEPAUhentry@@PBDHDG@Z 10014c50 f   hunspell:affixmgr.obj
 0001:00013e20       ?prefix_check_twosfx@AffixMgr@@QAEPAUhentry@@PBDHDG@Z 10014e20 f   hunspell:affixmgr.obj
 0001:00013ee0       ?prefix_check_morph@AffixMgr@@QAEPADPBDHDG@Z 10014ee0 f   hunspell:affixmgr.obj
 0001:00014070       ?prefix_check_twosfx_morph@AffixMgr@@QAEPADPBDHDG@Z 10015070 f   hunspell:affixmgr.obj
 0001:00014230       ?cpdrep_check@AffixMgr@@QAEHPBDH@Z 10015230 f   hunspell:affixmgr.obj
 0001:00014480       ?cpdpat_check@AffixMgr@@QAEHPBDHPAUhentry@@1D@Z 10015480 f   hunspell:affixmgr.obj
 0001:000145e0       ?cpdcase_check@AffixMgr@@QAEHPBDH@Z 100155e0 f   hunspell:affixmgr.obj
 0001:00014720       ?defcpd_check@AffixMgr@@QAEHPAPAPAUhentry@@FPAU2@PAPAU2@D@Z 10015720 f   hunspell:affixmgr.obj
 0001:00014ce0       ?get_syllable@AffixMgr@@QAEFPBDH@Z 10015ce0 f   hunspell:affixmgr.obj
 0001:00014df0       ?setcminmax@AffixMgr@@QAEXPAH0PBDH@Z 10015df0 f   hunspell:affixmgr.obj
 0001:00014eb0       ?compound_check@AffixMgr@@QAEPAUhentry@@PBDHFFFFPAPAU2@DDPAH@Z 10015eb0 f   hunspell:affixmgr.obj
 0001:000175a0       ?compound_check_morph@AffixMgr@@QAEHPBDHFFFFPAPAUhentry@@DPAPADPAD@Z 100185a0 f   hunspell:affixmgr.obj
 0001:00019530       ?suffix_check@AffixMgr@@QAEPAUhentry@@PBDHHPAVPfxEntry@@PAPADHPAHGGD@Z 1001a530 f   hunspell:affixmgr.obj
 0001:00019a10       ?suffix_check_twosfx@AffixMgr@@QAEPAUhentry@@PBDHHPAVPfxEntry@@G@Z 1001aa10 f   hunspell:affixmgr.obj
 0001:00019b00       ?suffix_check_twosfx_morph@AffixMgr@@QAEPADPBDHHPAVPfxEntry@@G@Z 1001ab00 f   hunspell:affixmgr.obj
 0001:00019de0       ?suffix_check_morph@AffixMgr@@QAEPADPBDHHPAVPfxEntry@@GGD@Z 1001ade0 f   hunspell:affixmgr.obj
 0001:0001ac00       ?affix_check@AffixMgr@@QAEPAUhentry@@PBDHGD@Z 1001bc00 f   hunspell:affixmgr.obj
 0001:0001ac80       ?affix_check_morph@AffixMgr@@QAEPADPBDHGD@Z 1001bc80 f   hunspell:affixmgr.obj
 0001:0001adf0       ?morphgen@AffixMgr@@QAEPADPADHPBGG00H@Z 1001bdf0 f   hunspell:affixmgr.obj
 0001:0001b120       ?expand_rootword@AffixMgr@@QAEHPAUguessword@@HPBDHPBGGPADH3@Z 1001c120 f   hunspell:affixmgr.obj
 0001:0001b8d0       ?get_encoding@AffixMgr@@QAEPADXZ 1001c8d0 f   hunspell:affixmgr.obj
 0001:0001b970       ?get_key_string@AffixMgr@@QAEPADXZ 1001c970 f   hunspell:affixmgr.obj
 0001:0001ba10       ?lookup@AffixMgr@@QAEPAUhentry@@PBD@Z 1001ca10 f   hunspell:affixmgr.obj
 0001:0001bb20       ?parse_flag@AffixMgr@@AAEHPADPAGPAVIStrMgr@@@Z 1001cb20 f   hunspell:affixmgr.obj
 0001:0001bba0       ?parse_num@AffixMgr@@AAEHPADPAHPAVIStrMgr@@@Z 1001cba0 f   hunspell:affixmgr.obj
 0001:0001bc00       ?parse_cpdsyllable@AffixMgr@@AAEHPADPAVIStrMgr@@@Z 1001cc00 f   hunspell:affixmgr.obj
 0001:0001be20       ?parse_reptable@AffixMgr@@AAEHPADPAVIStrMgr@@@Z 1001ce20 f   hunspell:affixmgr.obj
 0001:0001c1a0       ?parse_convtable@AffixMgr@@AAEHPADPAVIStrMgr@@PAPAVRepList@@PBD@Z 1001d1a0 f   hunspell:affixmgr.obj
 0001:0001c4c0       ?parse_phonetable@AffixMgr@@AAEHPADPAVIStrMgr@@@Z 1001d4c0 f   hunspell:affixmgr.obj
 0001:0001c870       ?parse_checkcpdtable@AffixMgr@@AAEHPADPAVIStrMgr@@@Z 1001d870 f   hunspell:affixmgr.obj
 0001:0001cc20       ?parse_defcpdtable@AffixMgr@@AAEHPADPAVIStrMgr@@@Z 1001dc20 f   hunspell:affixmgr.obj
 0001:0001d070       ?parse_maptable@AffixMgr@@AAEHPADPAVIStrMgr@@@Z 1001e070 f   hunspell:affixmgr.obj
 0001:0001d4a0       ?parse_breaktable@AffixMgr@@AAEHPADPAVIStrMgr@@@Z 1001e4a0 f   hunspell:affixmgr.obj
 0001:0001d730       ?reverse_condition@AffixMgr@@AAEXPAD@Z 1001e730 f   hunspell:affixmgr.obj
 0001:0001d7b0       ?parse_affix@AffixMgr@@AAEHPADDPAVIStrMgr@@0@Z 1001e7b0 f   hunspell:affixmgr.obj
 0001:0001e1c0       ?redundant_condition@AffixMgr@@AAEHDPADHPBDH@Z 1001f1c0 f   hunspell:affixmgr.obj
 0001:0001e3e0       ?resize@?$vector@Uaffentry@@V?$allocator@Uaffentry@@@std@@@std@@QAEXI@Z 1001f3e0 f i hunspell:affixmgr.obj
 0001:0001e490       ?_Reserve@?$vector@Uaffentry@@V?$allocator@Uaffentry@@@std@@@std@@IAEXI@Z 1001f490 f i hunspell:affixmgr.obj
 0001:0001e520       ?deallocate@?$_Wrap_alloc@V?$allocator@Uaffentry@@@std@@@std@@QAEXPAUaffentry@@I@Z 1001f520 f i hunspell:affixmgr.obj
 0001:0001e580       ?_Reallocate@?$vector@Uaffentry@@V?$allocator@Uaffentry@@@std@@@std@@IAEXI@Z 1001f580 f i hunspell:affixmgr.obj
 0001:0001e660       ??_EIStrMgr@@UAEPAXI@Z     1001f660 f i * CIL library *:* CIL module *
 0001:0001e660       ??_GIStrMgr@@UAEPAXI@Z     1001f660 f i hunspell:strmgr.obj
 0001:0001e690       ?what@exception@stdext@@UBEPBDXZ 1001f690 f i hunspell:strmgr.obj
 0001:0001e6a0       ?_Raise@exception@stdext@@QBEXXZ 1001f6a0 f i hunspell:strmgr.obj
 0001:0001e6e0       ??_Gexception@stdext@@UAEPAXI@Z 1001f6e0 f i hunspell:strmgr.obj
 0001:0001e6e0       ??_Eruntime_error@std@@UAEPAXI@Z 1001f6e0 f i * CIL library *:* CIL module *
 0001:0001e6e0       ??_Eexception@stdext@@UAEPAXI@Z 1001f6e0 f i * CIL library *:* CIL module *
 0001:0001e6e0       ??_Gruntime_error@std@@UAEPAXI@Z 1001f6e0 f i hunspell:strmgr.obj
 0001:0001e710       ??1runtime_error@std@@UAE@XZ 1001f710 f i hunspell:strmgr.obj
 0001:0001e720       ??_Gerror_category@std@@UAEPAXI@Z 1001f720 f i hunspell:strmgr.obj
 0001:0001e720       ??_G_Iostream_error_category@std@@UAEPAXI@Z 1001f720 f i hunspell:strmgr.obj
 0001:0001e720       ??_Eerror_category@std@@UAEPAXI@Z 1001f720 f i * CIL library *:* CIL module *
 0001:0001e720       ??_E_Iostream_error_category@std@@UAEPAXI@Z 1001f720 f i * CIL library *:* CIL module *
 0001:0001e750       ?default_error_condition@error_category@std@@UBE?AVerror_condition@2@H@Z 1001f750 f i hunspell:strmgr.obj
 0001:0001e760       ?equivalent@error_category@std@@UBE_NHABVerror_condition@2@@Z 1001f760 f i hunspell:strmgr.obj
 0001:0001e7c0       ?equivalent@error_category@std@@UBE_NABVerror_code@2@H@Z 1001f7c0 f i hunspell:strmgr.obj
 0001:0001e7f0       ??0_System_error@std@@IAE@Verror_code@1@ABV?$basic_string@DU?$char_traits@D@std@@V?$allocator@D@2@@1@@Z 1001f7f0 f i hunspell:strmgr.obj
 0001:0001e8e0       ??_E_System_error@std@@UAEPAXI@Z 1001f8e0 f i * CIL library *:* CIL module *
 0001:0001e8e0       ??_G_System_error@std@@UAEPAXI@Z 1001f8e0 f i hunspell:strmgr.obj
 0001:0001e8e0       ??_Gfailure@ios_base@std@@UAEPAXI@Z 1001f8e0 f i hunspell:strmgr.obj
 0001:0001e8e0       ??_Efailure@ios_base@std@@UAEPAXI@Z 1001f8e0 f i * CIL library *:* CIL module *
 0001:0001e910       ?name@_Iostream_error_category@std@@UBEPBDXZ 1001f910 f i hunspell:strmgr.obj
 0001:0001e920       ?message@_Iostream_error_category@std@@UBE?AV?$basic_string@DU?$char_traits@D@std@@V?$allocator@D@2@@2@H@Z 1001f920 f i hunspell:strmgr.obj
 0001:0001e9b0       ??0failure@ios_base@std@@QAE@PBDABVerror_code@2@@Z 1001f9b0 f i hunspell:strmgr.obj
 0001:0001ea50       ?clear@ios_base@std@@QAEXH_N@Z 1001fa50 f i hunspell:strmgr.obj
 0001:0001eaf0       ??0StrMgr@@QAE@PBD0@Z      1001faf0 f   hunspell:strmgr.obj
 0001:0001eb70       ??_GStrMgr@@UAEPAXI@Z      1001fb70 f i hunspell:strmgr.obj
 0001:0001eb70       ??_EStrMgr@@UAEPAXI@Z      1001fb70 f i * CIL library *:* CIL module *
 0001:0001ebb0       ?getline@StrMgr@@UAEPADXZ  1001fbb0 f   hunspell:strmgr.obj
 0001:0001ec10       ?getlinenum@StrMgr@@UAEHXZ 1001fc10 f   hunspell:strmgr.obj
 0001:0001ec20       ??0?$basic_string@DU?$char_traits@D@std@@V?$allocator@D@2@@std@@QAE@$$QAV01@@Z 1001fc20 f i hunspell:strmgr.obj
 0001:0001eca0       ?assign@?$basic_string@DU?$char_traits@D@std@@V?$allocator@D@2@@std@@QAEAAV12@ABV12@II@Z 1001fca0 f i hunspell:strmgr.obj
 0001:0001edb0       ?erase@?$basic_string@DU?$char_traits@D@std@@V?$allocator@D@2@@std@@QAEAAV12@II@Z 1001fdb0 f i hunspell:strmgr.obj
 0001:0001ee50       ?assign@?$basic_string@DU?$char_traits@D@std@@V?$allocator@D@2@@std@@QAEAAV12@PBDI@Z 1001fe50 f i hunspell:strmgr.obj
 0001:0001ef50       ??$_Immortalize@V_Iostream_error_category@std@@@std@@YAAAV_Iostream_error_category@0@XZ 1001ff50 f i hunspell:strmgr.obj
 0001:0001efc0       ??$?6U?$char_traits@D@std@@@std@@YAAAV?$basic_ostream@DU?$char_traits@D@std@@@0@AAV10@PBD@Z 1001ffc0 f i hunspell:strmgr.obj
 0001:0001f290       ??1sentry@?$basic_ostream@DU?$char_traits@D@std@@@std@@QAE@XZ 10020290 f i hunspell:strmgr.obj
 0001:0001f2f0       ??0sentry@?$basic_ostream@DU?$char_traits@D@std@@@std@@QAE@AAV12@@Z 100202f0 f i hunspell:strmgr.obj
 0001:0001f350       ?flush@?$basic_ostream@DU?$char_traits@D@std@@@std@@QAEAAV12@XZ 10020350 f i hunspell:strmgr.obj
 0001:0001f3c0       _fprintf                   100203c0 f i hunspell:filemgr.obj
 0001:0001f3f0       ??0FileMgr@@QAE@PBD0@Z     100203f0 f   hunspell:filemgr.obj
 0001:0001f4c0       ??_EFileMgr@@UAEPAXI@Z     100204c0 f i * CIL library *:* CIL module *
 0001:0001f4c0       ??_GFileMgr@@UAEPAXI@Z     100204c0 f i hunspell:filemgr.obj
 0001:0001f4f0       ??1FileMgr@@UAE@XZ         100204f0 f   hunspell:filemgr.obj
 0001:0001f560       ?getline@FileMgr@@UAEPADXZ 10020560 f   hunspell:filemgr.obj
 0001:0001f5c0       ?getlinenum@FileMgr@@UAEHXZ 100205c0 f   hunspell:filemgr.obj
 0001:0001f5d0       ?init_phonet_hash@@YAXAAUphonetable@@@Z 100205d0 f   hunspell:phonet.obj
 0001:0001f620       ?phonet@@YAHPBDPADHAAUphonetable@@@Z 10020620 f   hunspell:phonet.obj
 0001:0001fca0       ?add@PfxEntry@@QAEPADPBDH@Z 10020ca0 f   hunspell:affentry.obj
 0001:0001fda0       ?test_condition@PfxEntry@@QAEHPBD@Z 10020da0 f i hunspell:affentry.obj
 0001:00020100       ?checkword@PfxEntry@@QAEPAUhentry@@PBDHDG@Z 10021100 f   hunspell:affentry.obj
 0001:00020300       ?check_twosfx@PfxEntry@@QAEPAUhentry@@PBDHDG@Z 10021300 f   hunspell:affentry.obj
 0001:000203f0       ?check_twosfx_morph@PfxEntry@@QAEPADPBDHDG@Z 100213f0 f   hunspell:affentry.obj
 0001:000204d0       ?check_morph@PfxEntry@@QAEPADPBDHDG@Z 100214d0 f   hunspell:affentry.obj
 0001:00020780       ?add@SfxEntry@@QAEPADPBDH@Z 10021780 f   hunspell:affentry.obj
 0001:000208b0       ?nextchar@SfxEntry@@QAEPADPAD@Z 100218b0 f i hunspell:affentry.obj
 0001:000208f0       ?test_condition@SfxEntry@@QAEHPBD0@Z 100218f0 f i hunspell:affentry.obj
 0001:00020d00       ?checkword@SfxEntry@@QAEPAUhentry@@PBDHHPAVPfxEntry@@PAPADHPAHGGG@Z 10021d00 f   hunspell:affentry.obj
 0001:00020f40       ?check_twosfx@SfxEntry@@QAEPAUhentry@@PBDHHPAVPfxEntry@@G@Z 10021f40 f   hunspell:affentry.obj
 0001:00021090       ?check_twosfx_morph@SfxEntry@@QAEPADPBDHHPAVPfxEntry@@G@Z 10022090 f   hunspell:affentry.obj
 0001:00021280       ?get_next_homonym@SfxEntry@@QAEPAUhentry@@PAU2@HPAVPfxEntry@@GG@Z 10022280 f   hunspell:affentry.obj
 0001:000214d0       ?fail@Hunzip@@IAEHPBD0@Z   100224d0 f   hunspell:hunzip.obj
 0001:00021500       ??0Hunzip@@QAE@PBD0@Z      10022500 f   hunspell:hunzip.obj
 0001:00021590       ?getcode@Hunzip@@IAEHPBD@Z 10022590 f   hunspell:hunzip.obj
 0001:000218b0       ?getbuf@Hunzip@@IAEHXZ     100228b0 f   hunspell:hunzip.obj
 0001:00021a00       ?getline@Hunzip@@QAEPBDXZ  10022a00 f   hunspell:hunzip.obj
 0001:00021bd6       ??0bad_alloc@std@@QAE@ABV01@@Z 10022bd6 f i libcpmt:xthrow.obj
 0001:00021bf1       ??0bad_alloc@std@@QAE@XZ   10022bf1 f i libcpmt:xthrow.obj
 0001:00021c09       ??0exception@std@@QAE@ABV01@@Z 10022c09 f i libcpmt:xthrow.obj
 0001:00021c35       ??0exception@std@@QAE@QBD@Z 10022c35 f i libcpmt:xthrow.obj
 0001:00021c6c       ??0length_error@std@@QAE@ABV01@@Z 10022c6c f i libcpmt:xthrow.obj
 0001:00021c87       ??0length_error@std@@QAE@PBD@Z 10022c87 f i libcpmt:xthrow.obj
 0001:00021ca8       ??0logic_error@std@@QAE@ABV01@@Z 10022ca8 f i libcpmt:xthrow.obj
 0001:00021cc3       ??0out_of_range@std@@QAE@ABV01@@Z 10022cc3 f i libcpmt:xthrow.obj
 0001:00021cde       ??0out_of_range@std@@QAE@PBD@Z 10022cde f i libcpmt:xthrow.obj
 0001:00021cff       ??0runtime_error@std@@QAE@ABV01@@Z 10022cff f i libcpmt:xthrow.obj
 0001:00021d1a       ??0runtime_error@std@@QAE@PBD@Z 10022d1a f i libcpmt:xthrow.obj
 0001:00021d3b       ??1length_error@std@@UAE@XZ 10022d3b f i libcpmt:xthrow.obj
 0001:00021d3b       ??1bad_cast@std@@UAE@XZ    10022d3b f i libcpmt:cout.obj
 0001:00021d3b       ??1bad_alloc@std@@UAE@XZ   10022d3b f i libcpmt:xthrow.obj
 0001:00021d3b       ??1out_of_range@std@@UAE@XZ 10022d3b f i libcpmt:xthrow.obj
 0001:00021d3b       ??1bad_array_new_length@std@@UAE@XZ 10022d3b f i LIBCMT:throw_bad_alloc.obj
 0001:00021d3b       ??1bad_exception@std@@UAE@XZ 10022d3b f i libvcruntime:frame.obj
 0001:00021d4c       ??_Glogic_error@std@@UAEPAXI@Z 10022d4c f i libcpmt:xthrow.obj
 0001:00021d4c       ??_Ebad_cast@std@@UAEPAXI@Z 10022d4c f i libcpmt:cout.obj
 0001:00021d4c       ??_Elength_error@std@@UAEPAXI@Z 10022d4c f i libcpmt:xthrow.obj
 0001:00021d4c       ??_Ebad_alloc@std@@UAEPAXI@Z 10022d4c f i libcpmt:xthrow.obj
 0001:00021d4c       ??_Eout_of_range@std@@UAEPAXI@Z 10022d4c f i libcpmt:xthrow.obj
 0001:00021d4c       ??_Gbad_exception@std@@UAEPAXI@Z 10022d4c f i libvcruntime:frame.obj
 0001:00021d4c       ??_Gbad_array_new_length@std@@UAEPAXI@Z 10022d4c f i LIBCMT:throw_bad_alloc.obj
 0001:00021d4c       ??_Gbad_alloc@std@@UAEPAXI@Z 10022d4c f i libcpmt:xthrow.obj
 0001:00021d4c       ??_Eexception@std@@UAEPAXI@Z 10022d4c f i libcpmt:xthrow.obj
 0001:00021d4c       ??_Gout_of_range@std@@UAEPAXI@Z 10022d4c f i libcpmt:xthrow.obj
 0001:00021d4c       ??_Glength_error@std@@UAEPAXI@Z 10022d4c f i libcpmt:xthrow.obj
 0001:00021d4c       ??_Ebad_array_new_length@std@@UAEPAXI@Z 10022d4c f i LIBCMT:throw_bad_alloc.obj
 0001:00021d4c       ??_Gbad_cast@std@@UAEPAXI@Z 10022d4c f i libcpmt:cout.obj
 0001:00021d4c       ??_Ebad_exception@std@@UAEPAXI@Z 10022d4c f i libvcruntime:frame.obj
 0001:00021d4c       ??_Gexception@std@@UAEPAXI@Z 10022d4c f i libcpmt:xthrow.obj
 0001:00021d4c       ??_Elogic_error@std@@UAEPAXI@Z 10022d4c f i libcpmt:xthrow.obj
 0001:00021d79       ?_Xlength_error@std@@YAXPBD@Z 10022d79 f   libcpmt:xthrow.obj
 0001:00021d99       ?_Xout_of_range@std@@YAXPBD@Z 10022d99 f   libcpmt:xthrow.obj
 0001:00021db9       ?what@exception@std@@UBEPBDXZ 10022db9 f i libcpmt:xthrow.obj
 0001:00021dc6       ??$_Fgetc@D@std@@YA_NAADPAU_iobuf@@@Z 10022dc6 f i libcpmt:cout.obj
 0001:00021de6       ??$_Fputc@D@std@@YA_NDPAU_iobuf@@@Z 10022de6 f i libcpmt:cout.obj
 0001:00021e02       ??$_Ungetc@D@std@@YA_NABDPAU_iobuf@@@Z 10022e02 f i libcpmt:cout.obj
 0001:00021e20       ??$use_facet@V?$codecvt@DDU_Mbstatet@@@std@@@std@@YAABV?$codecvt@DDU_Mbstatet@@@0@ABVlocale@0@@Z 10022e20 f i libcpmt:cout.obj
 0001:00021ebd       ??$use_facet@V?$ctype@D@std@@@std@@YAABV?$ctype@D@0@ABVlocale@0@@Z 10022ebd f i libcpmt:cout.obj
 0001:00021f5a       ??0?$basic_ostream@DU?$char_traits@D@std@@@std@@QAE@PAV?$basic_streambuf@DU?$char_traits@D@std@@@1@_N@Z 10022f5a f i libcpmt:cout.obj
 0001:00021fc1       ??0?$basic_streambuf@DU?$char_traits@D@std@@@std@@IAE@XZ 10022fc1 f i libcpmt:cout.obj
 0001:00022008       ??0?$ctype@D@std@@QAE@ABV_Locinfo@1@I@Z 10023008 f i libcpmt:cout.obj
 0001:00022040       ??0?$fpos@U_Mbstatet@@@std@@QAE@U_Mbstatet@@_J@Z 10023040 f i libcpmt:cout.obj
 0001:00022068       ??0_Init_cout@std@@QAE@XZ  10023068 f i libcpmt:cout.obj
 0001:000220c1       ??0_Locinfo@std@@QAE@PBD@Z 100230c1 f i libcpmt:cout.obj
 0001:0002213e       ??0bad_cast@std@@QAE@ABV01@@Z 1002313e f i libcpmt:cout.obj
 0001:00022159       ??0bad_cast@std@@QAE@XZ    10023159 f i libcpmt:cout.obj
 0001:00022171       ??0locale@std@@QAE@ABV01@@Z 10023171 f i libcpmt:cout.obj
 0001:000221c7       ??1?$_Yarn@_W@std@@QAE@XZ  100231c7 f i libcpmt:cout.obj
 0001:000221c7       ??1?$_Yarn@D@std@@QAE@XZ   100231c7 f i libcpmt:cout.obj
 0001:000221dc       ??1?$basic_filebuf@DU?$char_traits@D@std@@@std@@UAE@XZ 100231dc f i libcpmt:cout.obj
 0001:00022236       ??1?$basic_ios@DU?$char_traits@D@std@@@std@@UAE@XZ 10023236 f i libcpmt:cout.obj
 0001:00022278       ??1?$basic_streambuf@DU?$char_traits@D@std@@@std@@UAE@XZ 10023278 f i libcpmt:cout.obj
 0001:00022299       ??1_Locinfo@std@@QAE@XZ    10023299 f i libcpmt:cout.obj
 0001:00022347       ??1locale@std@@QAE@XZ      10023347 f i libcpmt:cout.obj
 0001:000223aa       ??Bid@locale@std@@QAEIXZ   100233aa f i libcpmt:cout.obj
 0001:000223e1       ??_D?$basic_ostream@DU?$char_traits@D@std@@@std@@QAEXXZ 100233e1 f i libcpmt:cout.obj
 0001:00022441       ??_E?$basic_ostream@DU?$char_traits@D@std@@@std@@$4PPPPPPPM@A@AEPAXI@Z 10023441 f i libcpmt:cout.obj
 0001:00022449       ??_G?$basic_filebuf@DU?$char_traits@D@std@@@std@@UAEPAXI@Z 10023449 f i libcpmt:cout.obj
 0001:00022449       ??_E?$basic_filebuf@DU?$char_traits@D@std@@@std@@UAEPAXI@Z 10023449 f i libcpmt:cout.obj
 0001:0002246b       ??_E?$basic_ios@DU?$char_traits@D@std@@@std@@UAEPAXI@Z 1002346b f i libcpmt:cout.obj
 0001:0002246b       ??_G?$basic_ios@DU?$char_traits@D@std@@@std@@UAEPAXI@Z 1002346b f i libcpmt:cout.obj
 0001:000224c5       ??_E?$basic_ostream@DU?$char_traits@D@std@@@std@@UAEPAXI@Z 100234c5 f i libcpmt:cout.obj
 0001:000224c5       ??_G?$basic_ostream@DU?$char_traits@D@std@@@std@@UAEPAXI@Z 100234c5 f i libcpmt:cout.obj
 0001:000224ea       ??_E?$basic_streambuf@DU?$char_traits@D@std@@@std@@UAEPAXI@Z 100234ea f i libcpmt:cout.obj
 0001:000224ea       ??_G?$basic_streambuf@DU?$char_traits@D@std@@@std@@UAEPAXI@Z 100234ea f i libcpmt:cout.obj
 0001:0002250c       ??_G?$codecvt@DDU_Mbstatet@@@std@@MAEPAXI@Z 1002350c f i libcpmt:cout.obj
 0001:0002250c       ??_E?$codecvt@DDU_Mbstatet@@@std@@MAEPAXI@Z 1002350c f i libcpmt:cout.obj
 0001:0002252f       ??_G?$ctype@D@std@@MAEPAXI@Z 1002352f f i libcpmt:cout.obj
 0001:0002252f       ??_E?$ctype@D@std@@MAEPAXI@Z 1002352f f i libcpmt:cout.obj
 0001:0002255d       ??_G_Facet_base@std@@UAEPAXI@Z 1002355d f i libcpmt:cout.obj
 0001:0002255d       ??_E_Facet_base@std@@UAEPAXI@Z 1002355d f i libcpmt:cout.obj
 0001:00022580       ??_Eios_base@std@@UAEPAXI@Z 10023580 f i libcpmt:cout.obj
 0001:00022580       ??_Gios_base@std@@UAEPAXI@Z 10023580 f i libcpmt:cout.obj
 0001:000225da       ?_Chassign@?$basic_string@DU?$char_traits@D@std@@V?$allocator@D@2@@std@@QAEXIID@Z 100235da f i libcpmt:cout.obj
 0001:0002261a       ?_Decref@facet@locale@std@@UAEPAV_Facet_base@3@XZ 1002361a f i libcpmt:cout.obj
 0001:0002262c       ?_Endwrite@?$basic_filebuf@DU?$char_traits@D@std@@@std@@IAE_NXZ 1002362c f i libcpmt:cout.obj
 0001:0002274a       ?_Getcat@?$codecvt@DDU_Mbstatet@@@std@@SAIPAPBVfacet@locale@2@PBV42@@Z 1002374a f i libcpmt:cout.obj
 0001:000227b2       ?_Getcat@?$ctype@D@std@@SAIPAPBVfacet@locale@2@PBV42@@Z 100237b2 f i libcpmt:cout.obj
 0001:00022818       ?_Getfacet@locale@std@@QBEPBVfacet@12@I@Z 10023818 f i libcpmt:cout.obj
 0001:00022855       ?_Incref@facet@locale@std@@UAEXXZ 10023855 f i libcpmt:cout.obj
 0001:0002285a       ?_Init@?$basic_filebuf@DU?$char_traits@D@std@@@std@@IAEXPAU_iobuf@@W4_Initfl@12@@Z 1002385a f i libcpmt:cout.obj
 0001:000228d8       ?_Init@?$basic_streambuf@DU?$char_traits@D@std@@@std@@IAEXXZ 100238d8 f i libcpmt:cout.obj
 0001:0002291c       ?_Init@ios_base@std@@IAEXXZ 1002391c f i libcpmt:cout.obj
 0001:00022982       ?_Initcvt@?$basic_filebuf@DU?$char_traits@D@std@@@std@@IAEXPBV?$codecvt@DDU_Mbstatet@@@2@@Z 10023982 f i libcpmt:cout.obj
 0001:000229b8       ?_Lock@?$basic_filebuf@DU?$char_traits@D@std@@@std@@UAEXXZ 100239b8 f i libcpmt:cout.obj
 0001:000229c8       ?_Reset_back@?$basic_filebuf@DU?$char_traits@D@std@@@std@@AAEXXZ 100239c8 f i libcpmt:cout.obj
 0001:000229eb       ?_Set_back@?$basic_filebuf@DU?$char_traits@D@std@@@std@@AAEXXZ 100239eb f i libcpmt:cout.obj
 0001:00022a21       ?_Tidy@?$ctype@D@std@@IAEXXZ 10023a21 f i libcpmt:cout.obj
 0001:00022a4b       ?_Unlock@?$basic_filebuf@DU?$char_traits@D@std@@@std@@UAEXXZ 10023a4b f i libcpmt:cout.obj
 0001:00022a5b       ?append@?$basic_string@DU?$char_traits@D@std@@V?$allocator@D@2@@std@@QAEAAV12@ID@Z 10023a5b f i libcpmt:cout.obj
 0001:00022ab8       ?assign@?$basic_string@DU?$char_traits@D@std@@V?$allocator@D@2@@std@@QAEAAV12@ID@Z 10023ab8 f i libcpmt:cout.obj
 0001:00022b01       ?c_str@locale@std@@QBEPBDXZ 10023b01 f i libcpmt:cout.obj
 0001:00022b19       ?close@?$basic_filebuf@DU?$char_traits@D@std@@@std@@QAEPAV12@XZ 10023b19 f i libcpmt:cout.obj
 0001:00022b78       ?do_out@?$codecvt@DDU_Mbstatet@@@std@@MBEHAAU_Mbstatet@@PBD1AAPBDPAD3AAPAD@Z 10023b78 f i libcpmt:cout.obj
 0001:00022b78       ?do_in@?$codecvt@DDU_Mbstatet@@@std@@MBEHAAU_Mbstatet@@PBD1AAPBDPAD3AAPAD@Z 10023b78 f i libcpmt:cout.obj
 0001:00022b92       ?do_length@?$codecvt@DDU_Mbstatet@@@std@@MBEHAAU_Mbstatet@@PBD1I@Z 10023b92 f i libcpmt:cout.obj
 0001:00022baa       ?do_max_length@codecvt_base@std@@MBEHXZ 10023baa f i libcpmt:cout.obj
 0001:00022baa       ?do_encoding@codecvt_base@std@@MBEHXZ 10023baa f i libcpmt:cout.obj
 0001:00022baa       __get_startup_argv_mode    10023baa f i LIBCMT:argv_mode.obj
 0001:00022bae       ?do_narrow@?$ctype@D@std@@MBEDDD@Z 10023bae f i libcpmt:cout.obj
 0001:00022bb8       ?do_narrow@?$ctype@D@std@@MBEPBDPBD0DPAD@Z 10023bb8 f i libcpmt:cout.obj
 0001:00022bd7       ?do_tolower@?$ctype@D@std@@MBEDD@Z 10023bd7 f i libcpmt:cout.obj
 0001:00022bee       ?do_tolower@?$ctype@D@std@@MBEPBDPADPBD@Z 10023bee f i libcpmt:cout.obj
 0001:00022c32       ?do_toupper@?$ctype@D@std@@MBEDD@Z 10023c32 f i libcpmt:cout.obj
 0001:00022c49       ?do_toupper@?$ctype@D@std@@MBEPBDPADPBD@Z 10023c49 f i libcpmt:cout.obj
 0001:00022c8d       ?do_unshift@?$codecvt@DDU_Mbstatet@@@std@@MBEHAAU_Mbstatet@@PAD1AAPAD@Z 10023c8d f i libcpmt:cout.obj
 0001:00022c9e       ?do_widen@?$ctype@D@std@@MBEDD@Z 10023c9e f i libcpmt:cout.obj
 0001:00022ca8       ?do_widen@?$ctype@D@std@@MBEPBDPBD0PAD@Z 10023ca8 f i libcpmt:cout.obj
 0001:00022cc7       ?getloc@ios_base@std@@QBE?AVlocale@2@XZ 10023cc7 f i libcpmt:cout.obj
 0001:00022ce3       ?imbue@?$basic_filebuf@DU?$char_traits@D@std@@@std@@MAEXABVlocale@2@@Z 10023ce3 f i libcpmt:cout.obj
 0001:00022cff       ?imbue@?$basic_streambuf@DU?$char_traits@D@std@@@std@@MAEXABVlocale@2@@Z 10023cff f i libcpmt:cout.obj
 0001:00022d02       ?init@?$basic_ios@DU?$char_traits@D@std@@@std@@IAEXPAV?$basic_streambuf@DU?$char_traits@D@std@@@2@_N@Z 10023d02 f i libcpmt:cout.obj
 0001:00022d4b       ?overflow@?$basic_filebuf@DU?$char_traits@D@std@@@std@@MAEHH@Z 10023d4b f i libcpmt:cout.obj
 0001:00022ee9       ?pbackfail@?$basic_filebuf@DU?$char_traits@D@std@@@std@@MAEHH@Z 10023ee9 f i libcpmt:cout.obj
 0001:00022f70       ?overflow@?$basic_streambuf@DU?$char_traits@D@std@@@std@@MAEHH@Z 10023f70 f i libcpmt:cout.obj
 0001:00022f70       ?pbackfail@?$basic_streambuf@DU?$char_traits@D@std@@@std@@MAEHH@Z 10023f70 f i libcpmt:cout.obj
 0001:00022f76       ?seekoff@?$basic_filebuf@DU?$char_traits@D@std@@@std@@MAE?AV?$fpos@U_Mbstatet@@@2@_JHH@Z 10023f76 f i libcpmt:cout.obj
 0001:00023037       ?seekoff@?$basic_streambuf@DU?$char_traits@D@std@@@std@@MAE?AV?$fpos@U_Mbstatet@@@2@_JHH@Z 10024037 f i libcpmt:cout.obj
 0001:00023061       ?seekpos@?$basic_filebuf@DU?$char_traits@D@std@@@std@@MAE?AV?$fpos@U_Mbstatet@@@2@V32@H@Z 10024061 f i libcpmt:cout.obj
 0001:00023121       ?seekpos@?$basic_streambuf@DU?$char_traits@D@std@@@std@@MAE?AV?$fpos@U_Mbstatet@@@2@V32@H@Z 10024121 f i libcpmt:cout.obj
 0001:0002314b       ?setbuf@?$basic_filebuf@DU?$char_traits@D@std@@@std@@MAEPAV?$basic_streambuf@DU?$char_traits@D@std@@@2@PAD_J@Z 1002414b f i libcpmt:cout.obj
 0001:00023199       ?setbuf@?$basic_streambuf@DU?$char_traits@D@std@@@std@@MAEPAV12@PAD_J@Z 10024199 f i libcpmt:cout.obj
 0001:0002319e       ?showmanyc@?$basic_streambuf@DU?$char_traits@D@std@@@std@@MAE_JXZ 1002419e f i libcpmt:cout.obj
 0001:000231a3       ?sync@?$basic_filebuf@DU?$char_traits@D@std@@@std@@MAEHXZ 100241a3 f i libcpmt:cout.obj
 0001:000231db       ?sync@?$basic_streambuf@DU?$char_traits@D@std@@@std@@MAEHXZ 100241db f i libcpmt:cout.obj
 0001:000231de       ?uflow@?$basic_filebuf@DU?$char_traits@D@std@@@std@@MAEHXZ 100241de f i libcpmt:cout.obj
 0001:0002337d       ?uflow@?$basic_streambuf@DU?$char_traits@D@std@@@std@@MAEHXZ 1002437d f i libcpmt:cout.obj
 0001:000233af       ?underflow@?$basic_filebuf@DU?$char_traits@D@std@@@std@@MAEHXZ 100243af f i libcpmt:cout.obj
 0001:000233fd       ?underflow@?$basic_streambuf@DU?$char_traits@D@std@@@std@@MAEHXZ 100243fd f i libcpmt:cout.obj
 0001:00023401       ?widen@?$basic_ios@DU?$char_traits@D@std@@@std@@QBEDD@Z 10024401 f i libcpmt:cout.obj
 0001:0002344a       ?xsgetn@?$basic_streambuf@DU?$char_traits@D@std@@@std@@MAE_JPAD_J@Z 1002444a f i libcpmt:cout.obj
 0001:00023543       ?xsputn@?$basic_streambuf@DU?$char_traits@D@std@@@std@@MAE_JPBD_J@Z 10024543 f i libcpmt:cout.obj
 0001:000236bd       ?_Syserror_map@std@@YAPBDH@Z 100246bd f   libcpmt:syserror.obj
 0001:000236e2       ??0_Init_locks@std@@QAE@XZ 100246e2 f   libcpmt:xlock.obj
 0001:0002370f       ??0_Lockit@std@@QAE@H@Z    1002470f f   libcpmt:xlock.obj
 0001:00023740       ??1_Init_locks@std@@QAE@XZ 10024740 f   libcpmt:xlock.obj
 0001:00023767       ??1_Lockit@std@@QAE@XZ     10024767 f   libcpmt:xlock.obj
 0001:00023786       __Getctype                 10024786 f   libcpmt:_tolower.obj
 0001:000237f1       __Tolower                  100247f1 f   libcpmt:_tolower.obj
 0001:000238eb       __Toupper                  100248eb f   libcpmt:_toupper.obj
 0001:000239e5       ??0_Locimp@locale@std@@AAE@_N@Z 100249e5 f i libcpmt:locale0.obj
 0001:00023a28       ??1_Fac_node@std@@QAE@XZ   10024a28 f i libcpmt:locale0.obj
 0001:00023a87       ??1_Fac_tidy_reg_t@std@@QAE@XZ 10024a87 f i libcpmt:locale0.obj
 0001:00023aae       ??1_Locimp@locale@std@@MAE@XZ 10024aae f i libcpmt:locale0.obj
 0001:00023b09       ??4?$_Yarn@D@std@@QAEAAV01@PBD@Z 10024b09 f i libcpmt:locale0.obj
 0001:00023b5d       ??_E_Locimp@locale@std@@MAEPAXI@Z 10024b5d f i libcpmt:locale0.obj
 0001:00023b5d       ??_G_Locimp@locale@std@@MAEPAXI@Z 10024b5d f i libcpmt:locale0.obj
 0001:00023b7f       ?_Facet_Register@std@@YAXPAV_Facet_base@1@@Z 10024b7f f   libcpmt:locale0.obj
 0001:00023bad       ?_Getgloballocale@locale@std@@CAPAV_Locimp@12@XZ 10024bad f   libcpmt:locale0.obj
 0001:00023bb3       ?_Init@locale@std@@CAPAV_Locimp@12@_N@Z 10024bb3 f   libcpmt:locale0.obj
 0001:00023c41       ?_Locimp_dtor@_Locimp@locale@std@@CAXPAV123@@Z 10024c41 f   libcpmt:locale0.obj
 0001:00023cb6       ?_Locinfo_ctor@_Locinfo@std@@SAXPAV12@PBD@Z 10024cb6 f   libcpmt:locale0.obj
 0001:00023d01       ?_Locinfo_dtor@_Locinfo@std@@SAXPAV12@@Z 10024d01 f   libcpmt:locale0.obj
 0001:00023d23       ?_New_Locimp@_Locimp@locale@std@@CAPAV123@_N@Z 10024d23 f   libcpmt:locale0.obj
 0001:00023d48       ?_Setgloballocale@locale@std@@CAXPAX@Z 10024d48 f   libcpmt:locale0.obj
 0001:00023d70       __Deletegloballocale       10024d70 f   libcpmt:locale0.obj
 0001:00023dd5       ?_Addstd@ios_base@std@@SAXPAV12@@Z 10024dd5 f   libcpmt:ios.obj
 0001:00023e26       ?_Callfns@ios_base@std@@AAEXW4event@12@@Z 10024e26 f i libcpmt:ios.obj
 0001:00023e58       ?_Ios_base_dtor@ios_base@std@@CAXPAV12@@Z 10024e58 f   libcpmt:ios.obj
 0001:00023e98       ?_Tidy@ios_base@std@@AAEXXZ 10024e98 f i libcpmt:ios.obj
 0001:00023ee0       ??1_Init_atexit@@QAE@XZ    10024ee0 f i libcpmt:iosptrs.obj
 0001:00023f44       ?_Atexit@@YAXP6AXXZ@Z      10024f44 f   libcpmt:iosptrs.obj
 0001:00023f72       __Mtxdst                   10024f72 f   libcpmt:xmtx.obj
 0001:00023f80       __Mtxinit                  10024f80 f   libcpmt:xmtx.obj
 0001:00023f97       __Mtxlock                  10024f97 f   libcpmt:xmtx.obj
 0001:00023fa5       __Mtxunlock                10024fa5 f   libcpmt:xmtx.obj
 0001:00023fb5       ___crtLCMapStringA         10024fb5 f   libcpmt:StlLCMapStringA.obj
 0001:000241b8       __freea_crt                100251b8 f i libcpmt:StlLCMapStringA.obj
 0001:00024580       ___crtInitializeCriticalSectionEx 10025580 f   libcpmt:winapisupp.obj
 0001:000245b8       _GetTableIndexFromLocaleName 100255b8 f   libcpmt:winapinls.obj
 0001:00024606       ___crtDownlevelLocaleNameToLCID 10025606 f   libcpmt:winapinls.obj
 0001:00024630       ___crtLCMapStringEx        10025630 f   libcpmt:winapinls.obj
 0001:00024686       ___wcsnicmp_ascii          10025686 f   libcpmt:winapinls.obj
 0001:000246f9       @__security_check_cookie@4 100256f9 f   LIBCMT:_secchk_.obj
 0001:0002470a       ??2@YAPAXI@Z               1002570a f   LIBCMT:new_scalar.obj
 0001:00024781       ___scrt_acquire_startup_lock 10025781 f   LIBCMT:utility.obj
 0001:000247b6       ___scrt_dllmain_after_initialize_c 100257b6 f   LIBCMT:utility.obj
 0001:000247e1       ___scrt_dllmain_before_initialize_c 100257e1 f   LIBCMT:utility.obj
 0001:000247ef       ___scrt_dllmain_crt_thread_attach 100257ef f   LIBCMT:utility.obj
 0001:0002480e       ___scrt_dllmain_crt_thread_detach 1002580e f   LIBCMT:utility.obj
 0001:0002481b       ___scrt_dllmain_exception_filter 1002581b f   LIBCMT:utility.obj
 0001:0002484e       ___scrt_dllmain_uninitialize_c 1002584e f   LIBCMT:utility.obj
 0001:00024871       ___scrt_dllmain_uninitialize_critical 10025871 f   LIBCMT:utility.obj
 0001:0002487e       ___scrt_initialize_crt     1002587e f   LIBCMT:utility.obj
 0001:000248b7       ___scrt_initialize_onexit_tables 100258b7 f   LIBCMT:utility.obj
 0001:0002494e       ___scrt_is_nonwritable_in_current_image 1002594e f   LIBCMT:utility.obj
 0001:000249d8       ___scrt_release_startup_lock 100259d8 f   LIBCMT:utility.obj
 0001:000249f5       ___scrt_uninitialize_crt   100259f5 f   LIBCMT:utility.obj
 0001:00024a1d       __onexit                   10025a1d f   LIBCMT:utility.obj
 0001:00024a58       _atexit                    10025a58 f   LIBCMT:utility.obj
 0001:00024a6d       ??3@YAXPAX@Z               10025a6d f   LIBCMT:delete_scalar.obj
 0001:00024a72       ??3@YAXPAXI@Z              10025a72 f   LIBCMT:delete_scalar_size.obj
 0001:00024a80       ??_U@YAPAXI@Z              10025a80 f   LIBCMT:new_array.obj
 0001:00024d91       __DllMainCRTStartup@12     10025d91 f   LIBCMT:dll_dllmain.obj
 0001:00024db4       ___raise_securityfailure   10025db4 f   LIBCMT:gs_report.obj
 0001:00024ddc       ___report_gsfailure        10025ddc f   LIBCMT:gs_report.obj
 0001:00024ed7       ___report_rangecheckfailure 10025ed7 f   LIBCMT:gs_report.obj
 0001:00024ee3       ___report_securityfailure  10025ee3 f   LIBCMT:gs_report.obj
 0001:00024fb3       ??_V@YAXPAX@Z              10025fb3 f   LIBCMT:delete_array.obj
 0001:00025095       __Init_thread_footer       10026095 f   LIBCMT:thread_safe_statics.obj
 0001:000250d4       __Init_thread_header       100260d4 f   LIBCMT:thread_safe_statics.obj
 0001:0002511a       __Init_thread_lock         1002611a f   LIBCMT:thread_safe_statics.obj
 0001:00025126       __Init_thread_notify       10026126 f   LIBCMT:thread_safe_statics.obj
 0001:00025167       __Init_thread_unlock       10026167 f   LIBCMT:thread_safe_statics.obj
 0001:00025173       __Init_thread_wait         10026173 f   LIBCMT:thread_safe_statics.obj
 0001:000251d8       ??_Gtype_info@@UAEPAXI@Z   100261d8 f i LIBCMT:std_type_info_static.obj
 0001:000251d8       ??_Etype_info@@UAEPAXI@Z   100261d8 f i LIBCMT:std_type_info_static.obj
 0001:000251fb       @_guard_check_icall@4      100261fb f i LIBCMT:checkcfg.obj
 0001:00025201       __EH_epilog3               10026201 f   LIBCMT:ehprolg3.obj
 0001:00025216       __EH_epilog3_GS            10026216 f   LIBCMT:ehprolg3.obj
 0001:00025227       __EH_prolog3               10026227 f   LIBCMT:ehprolg3.obj
 0001:0002525b       __EH_prolog3_GS            1002625b f   LIBCMT:ehprolg3.obj
 0001:00025292       __EH_prolog3_catch         10026292 f   LIBCMT:ehprolg3.obj
 0001:000252d0       __alloca_probe_16          100262d0 f   LIBCMT:alloca16.obj
 0001:000252e6       __alloca_probe_8           100262e6     LIBCMT:alloca16.obj
 0001:00025300       __allmul                   10026300 f   LIBCMT:llmul.obj
 0001:00025340       __aulldiv                  10026340 f   LIBCMT:ulldiv.obj
 0001:000253a8       ??0bad_array_new_length@std@@QAE@ABV01@@Z 100263a8 f i LIBCMT:throw_bad_alloc.obj
 0001:000253c3       ??0bad_array_new_length@std@@QAE@XZ 100263c3 f i LIBCMT:throw_bad_alloc.obj
 0001:000253db       ?_Xbad_alloc@std@@YAXXZ    100263db f   libcpmt:xthrow.obj
 0001:000253db       ?__scrt_throw_std_bad_alloc@@YAXXZ 100263db f   LIBCMT:throw_bad_alloc.obj
 0001:000253f8       ?__scrt_throw_std_bad_array_new_length@@YAXXZ 100263f8 f   LIBCMT:throw_bad_alloc.obj
 0001:00025415       ___isa_available_init      10026415 f   LIBCMT:_cpu_disp_.obj
 0001:000255af       ___scrt_is_ucrt_dll_in_use 100265af f   LIBCMT:ucrt_detection.obj
 0001:000255bb       ___scrt_fastfail           100265bb f   LIBCMT:utility_desktop.obj
 0001:000256d6       __crt_debugger_hook        100266d6 f   LIBCMT:utility_desktop.obj
 0001:000256e0       __SEH_prolog4              100266e0 f   LIBCMT:_sehprolg4_.obj
 0001:00025726       __SEH_epilog4              10026726 f   LIBCMT:_sehprolg4_.obj
 0001:0002573b       ___security_init_cookie    1002673b f   LIBCMT:gs_support.obj
 0001:000257d7       _DllMain@12                100267d7 f   LIBCMT:dll_dllmain_stub.obj
 0001:000257dd       ?__scrt_initialize_type_info@@YAXXZ 100267dd f   LIBCMT:tncleanup.obj
 0001:000257e9       ?__scrt_uninitialize_type_info@@YAXXZ 100267e9 f   LIBCMT:tncleanup.obj
 0001:000257f5       ___local_stdio_scanf_options 100267f5 f i LIBCMT:default_local_stdio_options.obj
 0001:000257fb       ___scrt_initialize_default_local_stdio_options 100267fb f   LIBCMT:default_local_stdio_options.obj
 0001:00025818       ___scrt_get_dyn_tls_init_callback 10026818 f   LIBCMT:dyn_tls_init.obj
 0001:0002581e       __RTC_Initialize           1002681e f   LIBCMT:_initsect_.obj
 0001:00025849       __RTC_Terminate            10026849 f   LIBCMT:_initsect_.obj
 0001:00025880       __alloca_probe             10026880 f   LIBCMT:chkstk.obj
 0001:00025880       __chkstk                   10026880 f   LIBCMT:chkstk.obj
 0001:000258b0       _strstr                    100268b0 f   libvcruntime:strstr.obj
 0001:00025b20       _strchr                    10026b20 f   libvcruntime:strchr.obj
 0001:00025b8e       ___from_strstr_to_strchr   10026b8e     libvcruntime:strchr.obj
 0001:00025c50       _memmove                   10026c50 f   libvcruntime:memmove.obj
 0001:000261c4       __get_purecall_handler     100271c4 f   libvcruntime:purevirt.obj
 0001:000261e3       __purecall                 100271e3 f   libvcruntime:purevirt.obj
 0001:000261fe       ___std_exception_copy      100271fe f   libvcruntime:std_exception.obj
 0001:00026261       ___std_exception_destroy   10027261 f   libvcruntime:std_exception.obj
 0001:00026280       __CxxThrowException@8      10027280 f   libvcruntime:throw.obj
 0001:000262ee       ___DestructExceptionObject 100272ee f   libvcruntime:frame.obj
 0001:00026382       ??0bad_exception@std@@QAE@ABV01@@Z 10027382 f i libvcruntime:frame.obj
 0001:0002639d       ??0bad_exception@std@@QAE@XZ 1002739d f i libvcruntime:frame.obj
 0001:00026bce       ?_CallMemberFunction0@@YGXQAX0@Z 10027bce f i libvcruntime:frame.obj
 0001:00026bce       ?_CallMemberFunction2@@YGXQAX00H@Z 10027bce f i libvcruntime:frame.obj
 0001:00026bce       ?_CallMemberFunction1@@YGXQAX00@Z 10027bce f i libvcruntime:frame.obj
 0001:00026bd5       ___AdjustPointer           10027bd5 f   libvcruntime:frame.obj
 0001:00026bfa       ___BuildCatchObject        10027bfa f   libvcruntime:frame.obj
 0001:00026c89       ___BuildCatchObjectHelper  10027c89 f   libvcruntime:frame.obj
 0001:00026db7       ___FrameUnwindFilter       10027db7 f   libvcruntime:frame.obj
 0001:00026dfc       ___FrameUnwindToState      10027dfc f   libvcruntime:frame.obj
 0001:00026ec4       ___InternalCxxFrameHandler 10027ec4 f   libvcruntime:frame.obj
 0001:00026fc0       ___TypeMatch               10027fc0 f   libvcruntime:frame.obj
 0001:0002704e       ___std_terminate           1002804e f   libvcruntime:frame.obj
 0001:00027053       ?_CallCatchBlock2@@YAPAXPAUEHRegistrationNode@@PBU_s_FuncInfo@@PAXHK@Z 10028053 f   libvcruntime:trnsctrl.obj
 0001:000270b3       ?_CallSETranslator@@YAHPAUEHExceptionRecord@@PAUEHRegistrationNode@@PAX2PBU_s_FuncInfo@@H1@Z 100280b3 f   libvcruntime:trnsctrl.obj
 0001:00027190       ?_GetRangeOfTrysToCheck@@YAPBU_s_TryBlockMapEntry@@PBU_s_FuncInfo@@HHPAI1@Z 10028190 f   libvcruntime:trnsctrl.obj
 0001:00027208       ?_JumpToContinuation@@YGXPAXPAUEHRegistrationNode@@@Z 10028208 f   libvcruntime:trnsctrl.obj
 0001:0002723a       ?_UnwindNestedFrames@@YGXPAUEHRegistrationNode@@PAUEHExceptionRecord@@@Z 1002823a f   libvcruntime:trnsctrl.obj
 0001:0002728f       __CatchGuardHandler        1002828f f   libvcruntime:trnsctrl.obj
 0001:000272c0       __CreateFrameInfo          100282c0 f   libvcruntime:trnsctrl.obj
 0001:000272e4       __FindAndUnlinkFrame       100282e4 f   libvcruntime:trnsctrl.obj
 0001:0002732e       __IsExceptionObjectToBeDestroyed 1002832e f   libvcruntime:trnsctrl.obj
 0001:00027354       __TranslatorGuardHandler   10028354 f   libvcruntime:trnsctrl.obj
 0001:000273f3       ___CxxFrameHandler3        100283f3 f   libvcruntime:trnsctrl.obj
 0001:00027430       _memcpy                    10028430 f   libvcruntime:memcpy.obj
 0001:000279b0       _memset                    100289b0 f   libvcruntime:memset.obj
 0001:00027b10       _memchr                    10028b10 f   libvcruntime:memchr.obj
 0001:00027bbd       _memcmp                    10028bbd f   libvcruntime:_memcmp_.obj
 0001:0002933d       ___vcrt_initialize         1002a33d f   libvcruntime:initialization.obj
 0001:00029366       ___vcrt_thread_attach      1002a366 f   libvcruntime:initialization.obj
 0001:00029371       ___vcrt_thread_detach      1002a371 f   libvcruntime:initialization.obj
 0001:0002937c       ___vcrt_uninitialize       1002a37c f   libvcruntime:initialization.obj
 0001:0002939b       ___vcrt_uninitialize_critical 1002a39b f   libvcruntime:initialization.obj
 0001:000293f0       __except_handler4          1002a3f0 f   libvcruntime:_chandler4_.obj
 0001:00029556       ??$__crt_fast_encode_pointer@P6GXPAU_RTL_CONDITION_VARIABLE@@@Z@@YAP6GXPAU_RTL_CONDITION_VARIABLE@@@ZQ6GX0@Z@Z 1002a556 f i LIBCMT:thread_safe_statics.obj
 0001:00029556       ??$__crt_fast_encode_pointer@PAP6AXXZ@@YAPAP6AXXZQAP6AXXZ@Z 1002a556 f i LIBCMT:utility.obj
 0001:00029556       ??$__crt_fast_encode_pointer@PAX@@YAPAXQAX@Z 1002a556 f i libvcruntime:winapi_downlevel.obj
 0001:00029556       ??$__crt_fast_encode_pointer@P6GHPAU_RTL_CONDITION_VARIABLE@@PAU_RTL_CRITICAL_SECTION@@K@Z@@YAP6GHPAU_RTL_CONDITION_VARIABLE@@PAU_RTL_CRITICAL_SECTION@@K@ZQ6GH01K@Z@Z 1002a556 f i LIBCMT:thread_safe_statics.obj
 0001:00029694       ___vcrt_FlsAlloc           1002a694 f   libvcruntime:winapi_downlevel.obj
 0001:000296ce       ___vcrt_FlsFree            1002a6ce f   libvcruntime:winapi_downlevel.obj
 0001:00029708       ___vcrt_FlsGetValue        1002a708 f   libvcruntime:winapi_downlevel.obj
 0001:00029742       ___vcrt_FlsSetValue        1002a742 f   libvcruntime:winapi_downlevel.obj
 0001:0002977f       ___vcrt_InitializeCriticalSectionEx 1002a77f f   libvcruntime:winapi_downlevel.obj
 0001:000297c5       ___vcrt_initialize_winapi_thunks 1002a7c5 f   libvcruntime:winapi_downlevel.obj
 0001:000297ff       ___vcrt_uninitialize_winapi_thunks 1002a7ff f   libvcruntime:winapi_downlevel.obj
 0001:00029831       ___std_type_info_compare   1002a831 f   libvcruntime:std_type_info.obj
 0001:0002986d       ___std_type_info_destroy_list 1002a86d f   libvcruntime:std_type_info.obj
 0001:00029890       ___vcrt_initialize_pure_virtual_call_handler 1002a890 f   libvcruntime:purevirt_data.obj
 0001:000298ad       _unexpected                1002a8ad f   libvcruntime:unexpected.obj
 0001:000298c9       ___vcrt_freefls@4          1002a8c9 f   libvcruntime:per_thread_data.obj
 0001:000298e5       ___vcrt_freeptd            1002a8e5 f   libvcruntime:per_thread_data.obj
 0001:0002991b       ___vcrt_getptd             1002a91b f   libvcruntime:per_thread_data.obj
 0001:00029929       ___vcrt_getptd_noexit      1002a929 f   libvcruntime:per_thread_data.obj
 0001:000299bb       ___vcrt_initialize_ptd     1002a9bb f   libvcruntime:per_thread_data.obj
 0001:000299ee       ___vcrt_uninitialize_ptd   1002a9ee f   libvcruntime:per_thread_data.obj
 0001:00029a10       __CallSettingFrame@12      1002aa10 f   libvcruntime:lowhelpr.obj
 0001:00029a37       __NLG_Return               1002aa37     libvcruntime:lowhelpr.obj
 0001:00029a5c       ___vcrt_initialize_locks   1002aa5c f   libvcruntime:locks.obj
 0001:00029a98       ___vcrt_uninitialize_locks 1002aa98 f   libvcruntime:locks.obj
 0001:00029ad0       __local_unwind4            1002aad0 f   libvcruntime:_exsup4_.obj
 0001:00029ba6       __seh_longjmp_unwind4@4    1002aba6 f   libvcruntime:_exsup4_.obj
 0001:00029bce       @_EH4_CallFilterFunc@8     1002abce f   libvcruntime:_exsup4_.obj
 0001:00029be5       @_EH4_TransferToHandler@8  1002abe5 f   libvcruntime:_exsup4_.obj
 0001:00029bfe       @_EH4_GlobalUnwind2@8      1002abfe f   libvcruntime:_exsup4_.obj
 0001:00029c17       @_EH4_LocalUnwind@16       1002ac17 f   libvcruntime:_exsup4_.obj
 0001:00029c30       __global_unwind2           1002ac30 f   libvcruntime:_exsup_.obj
 0001:00029c95       __local_unwind2            1002ac95 f   libvcruntime:_exsup_.obj
 0001:00029d19       __abnormal_termination     1002ad19 f   libvcruntime:_exsup_.obj
 0001:00029d3c       __NLG_Notify1              1002ad3c f   libvcruntime:_exsup_.obj
 0001:00029d45       __NLG_Notify               1002ad45 f   libvcruntime:_exsup_.obj
 0001:00029d5c       __NLG_Dispatch2            1002ad5c     libvcruntime:_exsup_.obj
 0001:00029d5c       __NLG_Dispatch             1002ad5c     libvcruntime:_exsup_.obj
 0001:00029d64       __NLG_Call                 1002ad64 f   libvcruntime:_exsup_.obj
 0001:00029d66       __NLG_Return2              1002ad66     libvcruntime:_exsup_.obj
 0001:0002a3cb       ??$ftprintf@PAU_iobuf@@PB_WABQB_WABQB_WABI@?$__crt_char_traits@_W@@SAH$$QAPAU_iobuf@@$$QAPB_WABQB_W2ABI@Z 1002b3cb f i libucrt:assert.obj
 0001:0002a4aa       __vfwprintf_l              1002b4aa f i libucrt:assert.obj
 0001:0002a4cf       __vswprintf_c_l            1002b4cf f i libucrt:assert.obj
 0001:0002a4fe       __wassert                  1002b4fe f   libucrt:assert.obj
 0001:0002a546       _fwprintf                  1002b546 f i libucrt:assert.obj
 0001:0002a561       _swprintf                  1002b561 f i libucrt:assert.obj
 0001:0002a57f       ___acrt_call_reportfault   1002b57f f   libucrt:invalid_parameter.obj
 0001:0002a6ba       ___acrt_initialize_invalid_parameter_handler 1002b6ba f   libucrt:invalid_parameter.obj
 0001:0002a6ce       __invalid_parameter        1002b6ce f   libucrt:invalid_parameter.obj
 0001:0002a749       __invalid_parameter_noinfo 1002b749 f   libucrt:invalid_parameter.obj
 0001:0002a759       __invalid_parameter_noinfo_noreturn 1002b759 f   libucrt:invalid_parameter.obj
 0001:0002a776       __invoke_watson            1002b776 f   libucrt:invalid_parameter.obj
 0001:0002a7a9       ??0_LocaleUpdate@@QAE@QAU__crt_locale_pointers@@@Z 1002b7a9 f i libucrt:stricmp.obj
 0001:0002a82c       _realloc                   1002b82c f   libucrt:realloc.obj
 0001:0002a840       _strncpy                   1002b840 f   libucrt:strncpy.obj
 0001:0002a970       _strncmp                   1002b970 f   libucrt:strncmp.obj
 0001:0002a9e8       ??$?RV<lambda_ab9923ffb5d694ec0d78876dd103e44f>@@AAV<lambda_481dd5778c961fbcd3b60b650e9b9dc4>@@V<lambda_7923d86c9e3f319b415918ec4b39749c>@@@?$__crt_seh_guarded_call@H@@QAEH$$QAV<lambda_ab9923ffb5d694ec0d78876dd103e44f>@@AAV<lambda_481dd5778c961fbcd3b60b650e9b9dc4>@@$$QAV<lambda_7923d86c9e3f319b415918ec4b39749c>@@@Z 1002b9e8 f i libucrt:output.obj
 0001:0002aa39       ??$?RV<lambda_db08b09ef7aa9d4f8620ce68402612bc>@@AAV<lambda_4f2c1eaeead2a5fc776db5b62ea0fb9b>@@V<lambda_3ae262bc35d4ba6a3825c4f6bcaaf95c>@@@?$__crt_seh_guarded_call@H@@QAEH$$QAV<lambda_db08b09ef7aa9d4f8620ce68402612bc>@@AAV<lambda_4f2c1eaeead2a5fc776db5b62ea0fb9b>@@$$QAV<lambda_3ae262bc35d4ba6a3825c4f6bcaaf95c>@@@Z 1002ba39 f i libucrt:output.obj
 0001:0002aa8a       ??$__acrt_lock_stream_and_call@V<lambda_481dd5778c961fbcd3b60b650e9b9dc4>@@@@YAHQAU_iobuf@@$$QAV<lambda_481dd5778c961fbcd3b60b650e9b9dc4>@@@Z 1002ba8a f i libucrt:output.obj
 0001:0002aab2       ??$__acrt_lock_stream_and_call@V<lambda_4f2c1eaeead2a5fc776db5b62ea0fb9b>@@@@YAHQAU_iobuf@@$$QAV<lambda_4f2c1eaeead2a5fc776db5b62ea0fb9b>@@@Z 1002bab2 f i libucrt:output.obj
 0001:0002addb       ??$count@D@formatting_buffer@__crt_stdio_output@@QBEIXZ 1002bddb f i libucrt:output.obj
 0001:0002adf3       ??$ensure_buffer_is_big_enough@D@formatting_buffer@__crt_stdio_output@@QAE_NI@Z 1002bdf3 f i libucrt:output.obj
 0001:0002ae79       ??$is_wide_character_specifier@D@__crt_stdio_output@@YA_N_KDW4length_modifier@0@@Z 1002be79 f i libucrt:output.obj
 0001:0002aeb9       ??$is_wide_character_specifier@_W@__crt_stdio_output@@YA_N_K_WW4length_modifier@0@@Z 1002beb9 f i libucrt:output.obj
 0001:0002af08       ??$scratch_data@D@formatting_buffer@__crt_stdio_output@@QAEPADXZ 1002bf08 f i libucrt:output.obj
 0001:0002af26       ??$type_case_integer_parse_into_buffer@I@?$output_processor@DV?$string_output_adapter@D@__crt_stdio_output@@V?$standard_base@DV?$string_output_adapter@D@__crt_stdio_output@@@2@@__crt_stdio_output@@AAEXII_N@Z 1002bf26 f i libucrt:output.obj
 0001:0002af26       ??$type_case_integer_parse_into_buffer@I@?$output_processor@_WV?$string_output_adapter@_W@__crt_stdio_output@@V?$standard_base@_WV?$string_output_adapter@_W@__crt_stdio_output@@@2@@__crt_stdio_output@@AAEXII_N@Z 1002bf26 f i libucrt:output.obj
 0001:0002af26       ??$type_case_integer_parse_into_buffer@I@?$output_processor@_WV?$stream_output_adapter@_W@__crt_stdio_output@@V?$standard_base@_WV?$stream_output_adapter@_W@__crt_stdio_output@@@2@@__crt_stdio_output@@AAEXII_N@Z 1002bf26 f i libucrt:output.obj
 0001:0002af26       ??$type_case_integer_parse_into_buffer@I@?$output_processor@DV?$stream_output_adapter@D@__crt_stdio_output@@V?$standard_base@DV?$stream_output_adapter@D@__crt_stdio_output@@@2@@__crt_stdio_output@@AAEXII_N@Z 1002bf26 f i libucrt:output.obj
 0001:0002af9b       ??$type_case_integer_parse_into_buffer@_K@?$output_processor@_WV?$string_output_adapter@_W@__crt_stdio_output@@V?$standard_base@_WV?$string_output_adapter@_W@__crt_stdio_output@@@2@@__crt_stdio_output@@AAEX_KI_N@Z 1002bf9b f i libucrt:output.obj
 0001:0002af9b       ??$type_case_integer_parse_into_buffer@_K@?$output_processor@_WV?$stream_output_adapter@_W@__crt_stdio_output@@V?$standard_base@_WV?$stream_output_adapter@_W@__crt_stdio_output@@@2@@__crt_stdio_output@@AAEX_KI_N@Z 1002bf9b f i libucrt:output.obj
 0001:0002af9b       ??$type_case_integer_parse_into_buffer@_K@?$output_processor@DV?$stream_output_adapter@D@__crt_stdio_output@@V?$standard_base@DV?$stream_output_adapter@D@__crt_stdio_output@@@2@@__crt_stdio_output@@AAEX_KI_N@Z 1002bf9b f i libucrt:output.obj
 0001:0002af9b       ??$type_case_integer_parse_into_buffer@_K@?$output_processor@DV?$string_output_adapter@D@__crt_stdio_output@@V?$standard_base@DV?$string_output_adapter@D@__crt_stdio_output@@@2@@__crt_stdio_output@@AAEX_KI_N@Z 1002bf9b f i libucrt:output.obj
 0001:0002b023       ??$write_multiple_characters@V?$stream_output_adapter@D@__crt_stdio_output@@D@__crt_stdio_output@@YAXABV?$stream_output_adapter@D@0@DHQAH@Z 1002c023 f i libucrt:output.obj
 0001:0002b04f       ??$write_multiple_characters@V?$stream_output_adapter@_W@__crt_stdio_output@@D@__crt_stdio_output@@YAXABV?$stream_output_adapter@_W@0@DHQAH@Z 1002c04f f i libucrt:output.obj
 0001:0002b080       ??$write_multiple_characters@V?$string_output_adapter@D@__crt_stdio_output@@D@__crt_stdio_output@@YAXABV?$string_output_adapter@D@0@DHQAH@Z 1002c080 f i libucrt:output.obj
 0001:0002b0ac       ??$write_multiple_characters@V?$string_output_adapter@_W@__crt_stdio_output@@D@__crt_stdio_output@@YAXABV?$string_output_adapter@_W@0@DHQAH@Z 1002c0ac f i libucrt:output.obj
 0001:0002b0dd       ??0?$common_data@D@__crt_stdio_output@@IAE@XZ 1002c0dd f i libucrt:output.obj
 0001:0002b124       ??0?$common_data@_W@__crt_stdio_output@@IAE@XZ 1002c124 f i libucrt:output.obj
 0001:0002b170       ??0?$output_adapter_data@DV?$stream_output_adapter@D@__crt_stdio_output@@@__crt_stdio_output@@IAE@ABV?$stream_output_adapter@D@1@_KQBDQAU__crt_locale_pointers@@QAD@Z 1002c170 f i libucrt:output.obj
 0001:0002b170       ??0?$output_adapter_data@DV?$string_output_adapter@D@__crt_stdio_output@@@__crt_stdio_output@@IAE@ABV?$string_output_adapter@D@1@_KQBDQAU__crt_locale_pointers@@QAD@Z 1002c170 f i libucrt:output.obj
 0001:0002b1ac       ??0?$output_adapter_data@_WV?$stream_output_adapter@_W@__crt_stdio_output@@@__crt_stdio_output@@IAE@ABV?$stream_output_adapter@_W@1@_KQB_WQAU__crt_locale_pointers@@QAD@Z 1002c1ac f i libucrt:output.obj
 0001:0002b1ac       ??0?$output_adapter_data@_WV?$string_output_adapter@_W@__crt_stdio_output@@@__crt_stdio_output@@IAE@ABV?$string_output_adapter@_W@1@_KQB_WQAU__crt_locale_pointers@@QAD@Z 1002c1ac f i libucrt:output.obj
 0001:0002b1e8       ??0?$output_processor@DV?$string_output_adapter@D@__crt_stdio_output@@V?$standard_base@DV?$string_output_adapter@D@__crt_stdio_output@@@2@@__crt_stdio_output@@QAE@ABV?$string_output_adapter@D@1@_KQBDQAU__crt_locale_pointers@@QAD@Z 1002c1e8 f i libucrt:output.obj
 0001:0002b1e8       ??0?$output_processor@DV?$stream_output_adapter@D@__crt_stdio_output@@V?$standard_base@DV?$stream_output_adapter@D@__crt_stdio_output@@@2@@__crt_stdio_output@@QAE@ABV?$stream_output_adapter@D@1@_KQBDQAU__crt_locale_pointers@@QAD@Z 1002c1e8 f i libucrt:output.obj
 0001:0002b21d       ??0?$output_processor@_WV?$stream_output_adapter@_W@__crt_stdio_output@@V?$standard_base@_WV?$stream_output_adapter@_W@__crt_stdio_output@@@2@@__crt_stdio_output@@QAE@ABV?$stream_output_adapter@_W@1@_KQB_WQAU__crt_locale_pointers@@QAD@Z 1002c21d f i libucrt:output.obj
 0001:0002b21d       ??0?$output_processor@_WV?$string_output_adapter@_W@__crt_stdio_output@@V?$standard_base@_WV?$string_output_adapter@_W@__crt_stdio_output@@@2@@__crt_stdio_output@@QAE@ABV?$string_output_adapter@_W@1@_KQB_WQAU__crt_locale_pointers@@QAD@Z 1002c21d f i libucrt:output.obj
 0001:0002b252       ??1formatting_buffer@__crt_stdio_output@@QAE@XZ 1002c252 f i libucrt:output.obj
 0001:0002b26c       ??4?$__crt_unique_heap_ptr@DU__crt_internal_free_policy@@@@QAEAAV0@$$QAV0@@Z 1002c26c f i libucrt:output.obj
 0001:0002b40a       ?crop_zeroes@__crt_stdio_output@@YAXPADQAU__crt_locale_pointers@@@Z 1002c40a f i libucrt:output.obj
 0001:0002b461       ?find_next_state@?$output_processor@DV?$stream_output_adapter@D@__crt_stdio_output@@V?$standard_base@DV?$stream_output_adapter@D@__crt_stdio_output@@@2@@__crt_stdio_output@@ABE?AW4state@2@DW432@@Z 1002c461 f i libucrt:output.obj
 0001:0002b461       ?find_next_state@?$output_processor@DV?$string_output_adapter@D@__crt_stdio_output@@V?$standard_base@DV?$string_output_adapter@D@__crt_stdio_output@@@2@@__crt_stdio_output@@ABE?AW4state@2@DW432@@Z 1002c461 f i libucrt:output.obj
 0001:0002b493       ?find_next_state@?$output_processor@_WV?$string_output_adapter@_W@__crt_stdio_output@@V?$standard_base@_WV?$string_output_adapter@_W@__crt_stdio_output@@@2@@__crt_stdio_output@@ABE?AW4state@2@_WW432@@Z 1002c493 f i libucrt:output.obj
 0001:0002b493       ?find_next_state@?$output_processor@_WV?$stream_output_adapter@_W@__crt_stdio_output@@V?$standard_base@_WV?$stream_output_adapter@_W@__crt_stdio_output@@@2@@__crt_stdio_output@@ABE?AW4state@2@_WW432@@Z 1002c493 f i libucrt:output.obj
 0001:0002b4c7       ?force_decimal_point@__crt_stdio_output@@YAXPADQAU__crt_locale_pointers@@@Z 1002c4c7 f i libucrt:output.obj
 0001:0002b523       ?parse_int_from_format_string@?$output_processor@DV?$string_output_adapter@D@__crt_stdio_output@@V?$standard_base@DV?$string_output_adapter@D@__crt_stdio_output@@@2@@__crt_stdio_output@@AAE_NQAH@Z 1002c523 f i libucrt:output.obj
 0001:0002b523       ?parse_int_from_format_string@?$output_processor@DV?$stream_output_adapter@D@__crt_stdio_output@@V?$standard_base@DV?$stream_output_adapter@D@__crt_stdio_output@@@2@@__crt_stdio_output@@AAE_NQAH@Z 1002c523 f i libucrt:output.obj
 0001:0002b57f       ?parse_int_from_format_string@?$output_processor@_WV?$stream_output_adapter@_W@__crt_stdio_output@@V?$standard_base@_WV?$stream_output_adapter@_W@__crt_stdio_output@@@2@@__crt_stdio_output@@AAE_NQAH@Z 1002c57f f i libucrt:output.obj
 0001:0002b57f       ?parse_int_from_format_string@?$output_processor@_WV?$string_output_adapter@_W@__crt_stdio_output@@V?$standard_base@_WV?$string_output_adapter@_W@__crt_stdio_output@@@2@@__crt_stdio_output@@AAE_NQAH@Z 1002c57f f i libucrt:output.obj
 0001:0002b5dd       ?process@?$output_processor@DV?$stream_output_adapter@D@__crt_stdio_output@@V?$standard_base@DV?$stream_output_adapter@D@__crt_stdio_output@@@2@@__crt_stdio_output@@QAEHXZ 1002c5dd f i libucrt:output.obj
 0001:0002b6f9       ?process@?$output_processor@DV?$string_output_adapter@D@__crt_stdio_output@@V?$standard_base@DV?$string_output_adapter@D@__crt_stdio_output@@@2@@__crt_stdio_output@@QAEHXZ 1002c6f9 f i libucrt:output.obj
 0001:0002b815       ?process@?$output_processor@_WV?$stream_output_adapter@_W@__crt_stdio_output@@V?$standard_base@_WV?$stream_output_adapter@_W@__crt_stdio_output@@@2@@__crt_stdio_output@@QAEHXZ 1002c815 f i libucrt:output.obj
 0001:0002b935       ?process@?$output_processor@_WV?$string_output_adapter@_W@__crt_stdio_output@@V?$standard_base@_WV?$string_output_adapter@_W@__crt_stdio_output@@@2@@__crt_stdio_output@@QAEHXZ 1002c935 f i libucrt:output.obj
 0001:0002ba55       ?state_case_flag@?$output_processor@DV?$stream_output_adapter@D@__crt_stdio_output@@V?$standard_base@DV?$stream_output_adapter@D@__crt_stdio_output@@@2@@__crt_stdio_output@@AAE_NXZ 1002ca55 f i libucrt:output.obj
 0001:0002ba55       ?state_case_flag@?$output_processor@DV?$string_output_adapter@D@__crt_stdio_output@@V?$standard_base@DV?$string_output_adapter@D@__crt_stdio_output@@@2@@__crt_stdio_output@@AAE_NXZ 1002ca55 f i libucrt:output.obj
 0001:0002ba92       ?state_case_flag@?$output_processor@_WV?$stream_output_adapter@_W@__crt_stdio_output@@V?$standard_base@_WV?$stream_output_adapter@_W@__crt_stdio_output@@@2@@__crt_stdio_output@@AAE_NXZ 1002ca92 f i libucrt:output.obj
 0001:0002ba92       ?state_case_flag@?$output_processor@_WV?$string_output_adapter@_W@__crt_stdio_output@@V?$standard_base@_WV?$string_output_adapter@_W@__crt_stdio_output@@@2@@__crt_stdio_output@@AAE_NXZ 1002ca92 f i libucrt:output.obj
 0001:0002bacf       ?state_case_normal@?$output_processor@DV?$stream_output_adapter@D@__crt_stdio_output@@V?$standard_base@DV?$stream_output_adapter@D@__crt_stdio_output@@@2@@__crt_stdio_output@@AAE_NXZ 1002cacf f i libucrt:output.obj
 0001:0002baee       ?state_case_normal@?$output_processor@DV?$string_output_adapter@D@__crt_stdio_output@@V?$standard_base@DV?$string_output_adapter@D@__crt_stdio_output@@@2@@__crt_stdio_output@@AAE_NXZ 1002caee f i libucrt:output.obj
 0001:0002bb0d       ?state_case_normal@?$output_processor@_WV?$stream_output_adapter@_W@__crt_stdio_output@@V?$standard_base@_WV?$stream_output_adapter@_W@__crt_stdio_output@@@2@@__crt_stdio_output@@AAE_NXZ 1002cb0d f i libucrt:output.obj
 0001:0002bb2c       ?state_case_normal@?$output_processor@_WV?$string_output_adapter@_W@__crt_stdio_output@@V?$standard_base@_WV?$string_output_adapter@_W@__crt_stdio_output@@@2@@__crt_stdio_output@@AAE_NXZ 1002cb2c f i libucrt:output.obj
 0001:0002bb4b       ?state_case_normal_common@?$output_processor@DV?$stream_output_adapter@D@__crt_stdio_output@@V?$standard_base@DV?$stream_output_adapter@D@__crt_stdio_output@@@2@@__crt_stdio_output@@AAE_NXZ 1002cb4b f i libucrt:output.obj
 0001:0002bb75       ?state_case_normal_common@?$output_processor@DV?$string_output_adapter@D@__crt_stdio_output@@V?$standard_base@DV?$string_output_adapter@D@__crt_stdio_output@@@2@@__crt_stdio_output@@AAE_NXZ 1002cb75 f i libucrt:output.obj
 0001:0002bb9f       ?state_case_normal_common@?$output_processor@_WV?$stream_output_adapter@_W@__crt_stdio_output@@V?$standard_base@_WV?$stream_output_adapter@_W@__crt_stdio_output@@@2@@__crt_stdio_output@@AAE_NXZ 1002cb9f f i libucrt:output.obj
 0001:0002bbba       ?state_case_normal_common@?$output_processor@_WV?$string_output_adapter@_W@__crt_stdio_output@@V?$standard_base@_WV?$string_output_adapter@_W@__crt_stdio_output@@@2@@__crt_stdio_output@@AAE_NXZ 1002cbba f i libucrt:output.obj
 0001:0002bbd5       ?state_case_normal_tchar@?$output_processor@DV?$stream_output_adapter@D@__crt_stdio_output@@V?$standard_base@DV?$stream_output_adapter@D@__crt_stdio_output@@@2@@__crt_stdio_output@@AAE_ND@Z 1002cbd5 f i libucrt:output.obj
 0001:0002bc36       ?state_case_normal_tchar@?$output_processor@DV?$string_output_adapter@D@__crt_stdio_output@@V?$standard_base@DV?$string_output_adapter@D@__crt_stdio_output@@@2@@__crt_stdio_output@@AAE_ND@Z 1002cc36 f i libucrt:output.obj
 0001:0002bc97       ?state_case_precision@?$output_processor@DV?$string_output_adapter@D@__crt_stdio_output@@V?$standard_base@DV?$string_output_adapter@D@__crt_stdio_output@@@2@@__crt_stdio_output@@AAE_NXZ 1002cc97 f i libucrt:output.obj
 0001:0002bc97       ?state_case_precision@?$output_processor@DV?$stream_output_adapter@D@__crt_stdio_output@@V?$standard_base@DV?$stream_output_adapter@D@__crt_stdio_output@@@2@@__crt_stdio_output@@AAE_NXZ 1002cc97 f i libucrt:output.obj
 0001:0002bcbf       ?state_case_precision@?$output_processor@_WV?$stream_output_adapter@_W@__crt_stdio_output@@V?$standard_base@_WV?$stream_output_adapter@_W@__crt_stdio_output@@@2@@__crt_stdio_output@@AAE_NXZ 1002ccbf f i libucrt:output.obj
 0001:0002bcbf       ?state_case_precision@?$output_processor@_WV?$string_output_adapter@_W@__crt_stdio_output@@V?$standard_base@_WV?$string_output_adapter@_W@__crt_stdio_output@@@2@@__crt_stdio_output@@AAE_NXZ 1002ccbf f i libucrt:output.obj
 0001:0002bce8       ?state_case_size@?$output_processor@DV?$stream_output_adapter@D@__crt_stdio_output@@V?$standard_base@DV?$stream_output_adapter@D@__crt_stdio_output@@@2@@__crt_stdio_output@@AAE_NXZ 1002cce8 f i libucrt:output.obj
 0001:0002be51       ?state_case_size@?$output_processor@DV?$string_output_adapter@D@__crt_stdio_output@@V?$standard_base@DV?$string_output_adapter@D@__crt_stdio_output@@@2@@__crt_stdio_output@@AAE_NXZ 1002ce51 f i libucrt:output.obj
 0001:0002bfba       ?state_case_size@?$output_processor@_WV?$stream_output_adapter@_W@__crt_stdio_output@@V?$standard_base@_WV?$stream_output_adapter@_W@__crt_stdio_output@@@2@@__crt_stdio_output@@AAE_NXZ 1002cfba f i libucrt:output.obj
 0001:0002c136       ?state_case_size@?$output_processor@_WV?$string_output_adapter@_W@__crt_stdio_output@@V?$standard_base@_WV?$string_output_adapter@_W@__crt_stdio_output@@@2@@__crt_stdio_output@@AAE_NXZ 1002d136 f i libucrt:output.obj
 0001:0002c2b2       ?state_case_type@?$output_processor@DV?$stream_output_adapter@D@__crt_stdio_output@@V?$standard_base@DV?$stream_output_adapter@D@__crt_stdio_output@@@2@@__crt_stdio_output@@AAE_NXZ 1002d2b2 f i libucrt:output.obj
 0001:0002c4e1       ?state_case_type@?$output_processor@DV?$string_output_adapter@D@__crt_stdio_output@@V?$standard_base@DV?$string_output_adapter@D@__crt_stdio_output@@@2@@__crt_stdio_output@@AAE_NXZ 1002d4e1 f i libucrt:output.obj
 0001:0002c710       ?state_case_type@?$output_processor@_WV?$stream_output_adapter@_W@__crt_stdio_output@@V?$standard_base@_WV?$stream_output_adapter@_W@__crt_stdio_output@@@2@@__crt_stdio_output@@AAE_NXZ 1002d710 f i libucrt:output.obj
 0001:0002c96d       ?state_case_type@?$output_processor@_WV?$string_output_adapter@_W@__crt_stdio_output@@V?$standard_base@_WV?$string_output_adapter@_W@__crt_stdio_output@@@2@@__crt_stdio_output@@AAE_NXZ 1002d96d f i libucrt:output.obj
 0001:0002cbca       ?state_case_width@?$output_processor@DV?$stream_output_adapter@D@__crt_stdio_output@@V?$standard_base@DV?$stream_output_adapter@D@__crt_stdio_output@@@2@@__crt_stdio_output@@AAE_NXZ 1002dbca f i libucrt:output.obj
 0001:0002cbca       ?state_case_width@?$output_processor@DV?$string_output_adapter@D@__crt_stdio_output@@V?$standard_base@DV?$string_output_adapter@D@__crt_stdio_output@@@2@@__crt_stdio_output@@AAE_NXZ 1002dbca f i libucrt:output.obj
 0001:0002cbf5       ?state_case_width@?$output_processor@_WV?$string_output_adapter@_W@__crt_stdio_output@@V?$standard_base@_WV?$string_output_adapter@_W@__crt_stdio_output@@@2@@__crt_stdio_output@@AAE_NXZ 1002dbf5 f i libucrt:output.obj
 0001:0002cbf5       ?state_case_width@?$output_processor@_WV?$stream_output_adapter@_W@__crt_stdio_output@@V?$standard_base@_WV?$stream_output_adapter@_W@__crt_stdio_output@@@2@@__crt_stdio_output@@AAE_NXZ 1002dbf5 f i libucrt:output.obj
 0001:0002cc21       ?to_integer_size@__crt_stdio_output@@YAIW4length_modifier@1@@Z 1002dc21 f i libucrt:output.obj
 0001:0002cc7d       ?type_case_Z@?$output_processor@DV?$string_output_adapter@D@__crt_stdio_output@@V?$standard_base@DV?$string_output_adapter@D@__crt_stdio_output@@@2@@__crt_stdio_output@@AAE_NXZ 1002dc7d f i libucrt:output.obj
 0001:0002cc7d       ?type_case_Z@?$output_processor@DV?$stream_output_adapter@D@__crt_stdio_output@@V?$standard_base@DV?$stream_output_adapter@D@__crt_stdio_output@@@2@@__crt_stdio_output@@AAE_NXZ 1002dc7d f i libucrt:output.obj
 0001:0002cce0       ?type_case_Z@?$output_processor@_WV?$string_output_adapter@_W@__crt_stdio_output@@V?$standard_base@_WV?$string_output_adapter@_W@__crt_stdio_output@@@2@@__crt_stdio_output@@AAE_NXZ 1002dce0 f i libucrt:output.obj
 0001:0002cce0       ?type_case_Z@?$output_processor@_WV?$stream_output_adapter@_W@__crt_stdio_output@@V?$standard_base@_WV?$stream_output_adapter@_W@__crt_stdio_output@@@2@@__crt_stdio_output@@AAE_NXZ 1002dce0 f i libucrt:output.obj
 0001:0002cd43       ?type_case_a@?$output_processor@DV?$stream_output_adapter@D@__crt_stdio_output@@V?$standard_base@DV?$stream_output_adapter@D@__crt_stdio_output@@@2@@__crt_stdio_output@@AAE_NXZ 1002dd43 f i libucrt:output.obj
 0001:0002cd43       ?type_case_a@?$output_processor@DV?$string_output_adapter@D@__crt_stdio_output@@V?$standard_base@DV?$string_output_adapter@D@__crt_stdio_output@@@2@@__crt_stdio_output@@AAE_NXZ 1002dd43 f i libucrt:output.obj
 0001:0002ce9d       ?type_case_a@?$output_processor@_WV?$stream_output_adapter@_W@__crt_stdio_output@@V?$standard_base@_WV?$stream_output_adapter@_W@__crt_stdio_output@@@2@@__crt_stdio_output@@AAE_NXZ 1002de9d f i libucrt:output.obj
 0001:0002ce9d       ?type_case_a@?$output_processor@_WV?$string_output_adapter@_W@__crt_stdio_output@@V?$standard_base@_WV?$string_output_adapter@_W@__crt_stdio_output@@@2@@__crt_stdio_output@@AAE_NXZ 1002de9d f i libucrt:output.obj
 0001:0002d00f       ?type_case_c_tchar@?$output_processor@DV?$stream_output_adapter@D@__crt_stdio_output@@V?$standard_base@DV?$stream_output_adapter@D@__crt_stdio_output@@@2@@__crt_stdio_output@@AAE_ND@Z 1002e00f f i libucrt:output.obj
 0001:0002d00f       ?type_case_c_tchar@?$output_processor@DV?$string_output_adapter@D@__crt_stdio_output@@V?$standard_base@DV?$string_output_adapter@D@__crt_stdio_output@@@2@@__crt_stdio_output@@AAE_ND@Z 1002e00f f i libucrt:output.obj
 0001:0002d09f       ?type_case_c_tchar@?$output_processor@_WV?$stream_output_adapter@_W@__crt_stdio_output@@V?$standard_base@_WV?$stream_output_adapter@_W@__crt_stdio_output@@@2@@__crt_stdio_output@@AAE_N_W@Z 1002e09f f i libucrt:output.obj
 0001:0002d09f       ?type_case_c_tchar@?$output_processor@_WV?$string_output_adapter@_W@__crt_stdio_output@@V?$standard_base@_WV?$string_output_adapter@_W@__crt_stdio_output@@@2@@__crt_stdio_output@@AAE_N_W@Z 1002e09f f i libucrt:output.obj
 0001:0002d137       ?type_case_integer@?$output_processor@_WV?$string_output_adapter@_W@__crt_stdio_output@@V?$standard_base@_WV?$string_output_adapter@_W@__crt_stdio_output@@@2@@__crt_stdio_output@@AAE_NI_N@Z 1002e137 f i libucrt:output.obj
 0001:0002d137       ?type_case_integer@?$output_processor@_WV?$stream_output_adapter@_W@__crt_stdio_output@@V?$standard_base@_WV?$stream_output_adapter@_W@__crt_stdio_output@@@2@@__crt_stdio_output@@AAE_NI_N@Z 1002e137 f i libucrt:output.obj
 0001:0002d137       ?type_case_integer@?$output_processor@DV?$string_output_adapter@D@__crt_stdio_output@@V?$standard_base@DV?$string_output_adapter@D@__crt_stdio_output@@@2@@__crt_stdio_output@@AAE_NI_N@Z 1002e137 f i libucrt:output.obj
 0001:0002d137       ?type_case_integer@?$output_processor@DV?$stream_output_adapter@D@__crt_stdio_output@@V?$standard_base@DV?$stream_output_adapter@D@__crt_stdio_output@@@2@@__crt_stdio_output@@AAE_NI_N@Z 1002e137 f i libucrt:output.obj
 0001:0002d281       ?type_case_n@?$output_processor@_WV?$string_output_adapter@_W@__crt_stdio_output@@V?$standard_base@_WV?$string_output_adapter@_W@__crt_stdio_output@@@2@@__crt_stdio_output@@AAE_NXZ 1002e281 f i libucrt:output.obj
 0001:0002d281       ?type_case_n@?$output_processor@_WV?$stream_output_adapter@_W@__crt_stdio_output@@V?$standard_base@_WV?$stream_output_adapter@_W@__crt_stdio_output@@@2@@__crt_stdio_output@@AAE_NXZ 1002e281 f i libucrt:output.obj
 0001:0002d281       ?type_case_n@?$output_processor@DV?$stream_output_adapter@D@__crt_stdio_output@@V?$standard_base@DV?$stream_output_adapter@D@__crt_stdio_output@@@2@@__crt_stdio_output@@AAE_NXZ 1002e281 f i libucrt:output.obj
 0001:0002d281       ?type_case_n@?$output_processor@DV?$string_output_adapter@D@__crt_stdio_output@@V?$standard_base@DV?$string_output_adapter@D@__crt_stdio_output@@@2@@__crt_stdio_output@@AAE_NXZ 1002e281 f i libucrt:output.obj
 0001:0002d2f5       ?type_case_o@?$output_processor@_WV?$string_output_adapter@_W@__crt_stdio_output@@V?$standard_base@_WV?$string_output_adapter@_W@__crt_stdio_output@@@2@@__crt_stdio_output@@AAE_NXZ 1002e2f5 f i libucrt:output.obj
 0001:0002d2f5       ?type_case_o@?$output_processor@DV?$stream_output_adapter@D@__crt_stdio_output@@V?$standard_base@DV?$stream_output_adapter@D@__crt_stdio_output@@@2@@__crt_stdio_output@@AAE_NXZ 1002e2f5 f i libucrt:output.obj
 0001:0002d2f5       ?type_case_o@?$output_processor@DV?$string_output_adapter@D@__crt_stdio_output@@V?$standard_base@DV?$string_output_adapter@D@__crt_stdio_output@@@2@@__crt_stdio_output@@AAE_NXZ 1002e2f5 f i libucrt:output.obj
 0001:0002d2f5       ?type_case_o@?$output_processor@_WV?$stream_output_adapter@_W@__crt_stdio_output@@V?$standard_base@_WV?$stream_output_adapter@_W@__crt_stdio_output@@@2@@__crt_stdio_output@@AAE_NXZ 1002e2f5 f i libucrt:output.obj
 0001:0002d314       ?type_case_p@?$output_processor@DV?$stream_output_adapter@D@__crt_stdio_output@@V?$standard_base@DV?$stream_output_adapter@D@__crt_stdio_output@@@2@@__crt_stdio_output@@AAE_NXZ 1002e314 f i libucrt:output.obj
 0001:0002d314       ?type_case_p@?$output_processor@_WV?$string_output_adapter@_W@__crt_stdio_output@@V?$standard_base@_WV?$string_output_adapter@_W@__crt_stdio_output@@@2@@__crt_stdio_output@@AAE_NXZ 1002e314 f i libucrt:output.obj
 0001:0002d314       ?type_case_p@?$output_processor@DV?$string_output_adapter@D@__crt_stdio_output@@V?$standard_base@DV?$string_output_adapter@D@__crt_stdio_output@@@2@@__crt_stdio_output@@AAE_NXZ 1002e314 f i libucrt:output.obj
 0001:0002d314       ?type_case_p@?$output_processor@_WV?$stream_output_adapter@_W@__crt_stdio_output@@V?$standard_base@_WV?$stream_output_adapter@_W@__crt_stdio_output@@@2@@__crt_stdio_output@@AAE_NXZ 1002e314 f i libucrt:output.obj
 0001:0002d32c       ?type_case_s@?$output_processor@DV?$stream_output_adapter@D@__crt_stdio_output@@V?$standard_base@DV?$stream_output_adapter@D@__crt_stdio_output@@@2@@__crt_stdio_output@@AAE_NXZ 1002e32c f i libucrt:output.obj
 0001:0002d32c       ?type_case_s@?$output_processor@DV?$string_output_adapter@D@__crt_stdio_output@@V?$standard_base@DV?$string_output_adapter@D@__crt_stdio_output@@@2@@__crt_stdio_output@@AAE_NXZ 1002e32c f i libucrt:output.obj
 0001:0002d39f       ?type_case_s@?$output_processor@_WV?$stream_output_adapter@_W@__crt_stdio_output@@V?$standard_base@_WV?$stream_output_adapter@_W@__crt_stdio_output@@@2@@__crt_stdio_output@@AAE_NXZ 1002e39f f i libucrt:output.obj
 0001:0002d39f       ?type_case_s@?$output_processor@_WV?$string_output_adapter@_W@__crt_stdio_output@@V?$standard_base@_WV?$string_output_adapter@_W@__crt_stdio_output@@@2@@__crt_stdio_output@@AAE_NXZ 1002e39f f i libucrt:output.obj
 0001:0002d413       ?type_case_s_compute_narrow_string_length@?$output_processor@_WV?$string_output_adapter@_W@__crt_stdio_output@@V?$standard_base@_WV?$string_output_adapter@_W@__crt_stdio_output@@@2@@__crt_stdio_output@@ABEHH_W@Z 1002e413 f i libucrt:output.obj
 0001:0002d413       ?type_case_s_compute_narrow_string_length@?$output_processor@_WV?$stream_output_adapter@_W@__crt_stdio_output@@V?$standard_base@_WV?$stream_output_adapter@_W@__crt_stdio_output@@@2@@__crt_stdio_output@@ABEHH_W@Z 1002e413 f i libucrt:output.obj
 0001:0002d453       ?validate@?$stream_output_adapter@D@__crt_stdio_output@@QBE_NXZ 1002e453 f i libucrt:output.obj
 0001:0002d474       ?validate@?$stream_output_adapter@_W@__crt_stdio_output@@QBE_NXZ 1002e474 f i libucrt:output.obj
 0001:0002d474       ?validate@?$string_output_adapter@_W@__crt_stdio_output@@QBE_NXZ 1002e474 f i libucrt:output.obj
 0001:0002d474       ?validate@?$c_string_character_source@D@__crt_strtox@@QBE_NXZ 1002e474 f i libucrt:atox.obj
 0001:0002d474       ?validate@?$string_output_adapter@D@__crt_stdio_output@@QBE_NXZ 1002e474 f i libucrt:output.obj
 0001:0002d474       ?validate@?$c_string_character_source@_W@__crt_strtox@@QBE_NXZ 1002e474 f i libucrt:atox.obj
 0001:0002d48f       ?validate_stream_is_ansi_if_required@?$__acrt_stdio_char_traits@D@@SA_NQAU_iobuf@@@Z 1002e48f f i libucrt:output.obj
 0001:0002d511       ?write_character@?$stream_output_adapter@D@__crt_stdio_output@@QBEXDQAH@Z 1002e511 f i libucrt:output.obj
 0001:0002d54e       ?write_character@?$stream_output_adapter@_W@__crt_stdio_output@@QBEX_WQAH@Z 1002e54e f i libucrt:output.obj
 0001:0002d58e       ?write_character@?$string_output_adapter@D@__crt_stdio_output@@QBE_NDQAH@Z 1002e58e f i libucrt:output.obj
 0001:0002d5d0       ?write_character@?$string_output_adapter@_W@__crt_stdio_output@@QBE_N_WQAH@Z 1002e5d0 f i libucrt:output.obj
 0001:0002d615       ?write_stored_string_tchar@?$output_processor@DV?$stream_output_adapter@D@__crt_stdio_output@@V?$standard_base@DV?$stream_output_adapter@D@__crt_stdio_output@@@2@@__crt_stdio_output@@AAE_ND@Z 1002e615 f i libucrt:output.obj
 0001:0002d6bc       ?write_stored_string_tchar@?$output_processor@DV?$string_output_adapter@D@__crt_stdio_output@@V?$standard_base@DV?$string_output_adapter@D@__crt_stdio_output@@@2@@__crt_stdio_output@@AAE_ND@Z 1002e6bc f i libucrt:output.obj
 0001:0002d763       ?write_stored_string_tchar@?$output_processor@_WV?$stream_output_adapter@_W@__crt_stdio_output@@V?$standard_base@_WV?$stream_output_adapter@_W@__crt_stdio_output@@@2@@__crt_stdio_output@@AAE_N_W@Z 1002e763 f i libucrt:output.obj
 0001:0002d7ee       ?write_stored_string_tchar@?$output_processor@_WV?$string_output_adapter@_W@__crt_stdio_output@@V?$standard_base@_WV?$string_output_adapter@_W@__crt_stdio_output@@@2@@__crt_stdio_output@@AAE_N_W@Z 1002e7ee f i libucrt:output.obj
 0001:0002d879       ?write_string@?$stream_output_adapter@D@__crt_stdio_output@@QBEXQBDHQAH1@Z 1002e879 f i libucrt:output.obj
 0001:0002d903       ?write_string@?$stream_output_adapter@_W@__crt_stdio_output@@QBEXQB_WHQAH1@Z 1002e903 f i libucrt:output.obj
 0001:0002d990       ?write_string@?$string_output_adapter@D@__crt_stdio_output@@QBEXQBDHQAH1@Z 1002e990 f i libucrt:output.obj
 0001:0002da23       ?write_string@?$string_output_adapter@_W@__crt_stdio_output@@QBEXQB_WHQAH1@Z 1002ea23 f i libucrt:output.obj
 0001:0002dabd       ___stdio_common_vfprintf   1002eabd f   libucrt:output.obj
 0001:0002db34       ___stdio_common_vfwprintf  1002eb34 f   libucrt:output.obj
 0001:0002dbab       ___stdio_common_vsprintf   1002ebab f   libucrt:output.obj
 0001:0002dbcf       ___stdio_common_vswprintf  1002ebcf f   libucrt:output.obj
 0001:0002dbf3       _free                      1002ebf3 f   libucrt:free.obj
 0001:0002dbf8       _malloc                    1002ebf8 f   libucrt:malloc.obj
 0001:0002dc03       ___acrt_initialize_stdio   1002ec03 f   libucrt:_file.obj
 0001:0002dccb       ___acrt_iob_func           1002eccb f   libucrt:_file.obj
 0001:0002dcdb       ___acrt_uninitialize_stdio 1002ecdb f   libucrt:_file.obj
 0001:0002dd27       __get_stream_buffer_pointers 1002ed27 f   libucrt:_file.obj
 0001:0002dd6d       __lock_file                1002ed6d f   libucrt:_file.obj
 0001:0002dd81       __unlock_file              1002ed81 f   libucrt:_file.obj
 0001:0002dd95       ??$is_overflow_condition@K@__crt_strtox@@YA_NIK@Z 1002ed95 f i libucrt:atox.obj
 0001:0002ddc8       ??$make_c_string_character_source@_W$$T@__crt_strtox@@YA?AV?$c_string_character_source@_W@0@QB_W$$T@Z 1002edc8 f i libucrt:atox.obj
 0001:0002ddc8       ??$make_c_string_character_source@D$$T@__crt_strtox@@YA?AV?$c_string_character_source@D@0@QBD$$T@Z 1002edc8 f i libucrt:atox.obj
 0001:0002ddc8       ??$make_c_string_character_source@DPAPAD@__crt_strtox@@YA?AV?$c_string_character_source@D@0@QBDQAPAD@Z 1002edc8 f i libucrt:strtod.obj
 0001:0002ddc8       ??$make_c_string_character_source@_WPAPA_W@__crt_strtox@@YA?AV?$c_string_character_source@_W@0@QB_WQAPA_W@Z 1002edc8 f i libucrt:strtod.obj
 0001:0002dde3       ??$parse_integer@KV?$c_string_character_source@D@__crt_strtox@@@__crt_strtox@@YAKQAU__crt_locale_pointers@@V?$c_string_character_source@D@0@H_N@Z 1002ede3 f i libucrt:atox.obj
 0001:0002e00b       ??$parse_integer@KV?$c_string_character_source@_W@__crt_strtox@@@__crt_strtox@@YAKQAU__crt_locale_pointers@@V?$c_string_character_source@_W@0@H_N@Z 1002f00b f i libucrt:atox.obj
 0001:0002e6f0       ?unget@?$c_string_character_source@D@__crt_strtox@@QAEXD@Z 1002f6f0 f i libucrt:atox.obj
 0001:0002e718       ?unget@?$c_string_character_source@_W@__crt_strtox@@QAEX_W@Z 1002f718 f i libucrt:atox.obj
 0001:0002e744       __chvalidchk_l             1002f744 f i libucrt:atox.obj
 0001:0002e76e       __ischartype_l             1002f76e f i libucrt:atox.obj
 0001:0002e7a1       __wtol                     1002f7a1 f   libucrt:atox.obj
 0001:0002e7cb       _atoi                      1002f7cb f   libucrt:atox.obj
 0001:0002e7f5       __isalpha_l                1002f7f5 f i libucrt:_ctype.obj
 0001:0002e830       __isdigit_l                1002f830 f i libucrt:_ctype.obj
 0001:0002e868       __islower_l                1002f868 f i libucrt:_ctype.obj
 0001:0002e8a0       __isspace_l                1002f8a0 f i libucrt:_ctype.obj
 0001:0002e8d8       __isupper_l                1002f8d8 f i libucrt:_ctype.obj
 0001:0002e910       _isalpha                   1002f910 f i libucrt:_ctype.obj
 0001:0002e93f       _isdigit                   1002f93f f i libucrt:_ctype.obj
 0001:0002e96c       _islower                   1002f96c f i libucrt:_ctype.obj
 0001:0002e999       _isspace                   1002f999 f i libucrt:_ctype.obj
 0001:0002e9c6       _isupper                   1002f9c6 f i libucrt:_ctype.obj
 0001:0002e9f3       _calloc                    1002f9f3 f   libucrt:calloc.obj
 0001:0002ea5f       ___acrt_initialize_clock   1002fa5f f   libucrt:clock.obj
 0001:0002eac5       _clock                     1002fac5 f   libucrt:clock.obj
 0001:0002ebe8       _fopen                     1002fbe8 f   libucrt:fopen.obj
 0001:0002ebff       __fclose_nolock            1002fbff f   libucrt:fclose.obj
 0001:0002ec75       _fclose                    1002fc75 f   libucrt:fclose.obj
 0001:0002edba       _fgets                     1002fdba f   libucrt:fgets.obj
 0001:0002edc5       __fread_nolock_s           1002fdc5 f   libucrt:fread.obj
 0001:0002ef91       _fread                     1002ff91 f   libucrt:fread.obj
 0001:0002efae       _fread_s                   1002ffae f   libucrt:fread.obj
 0001:0002f041       ___acrt_errno_from_os_error 10030041 f   libucrt:errno.obj
 0001:0002f084       ___acrt_errno_map_os_error 10030084 f   libucrt:errno.obj
 0001:0002f0a7       ___doserrno                100300a7 f   libucrt:errno.obj
 0001:0002f0ba       __errno                    100300ba f   libucrt:errno.obj
 0001:0002f0cd       ___acrt_stdio_flush_nolock 100300cd f   libucrt:fflush.obj
 0001:0002f133       __fflush_nolock            10030133 f   libucrt:fflush.obj
 0001:0002f17a       __flushall                 1003017a f   libucrt:fflush.obj
 0001:0002f25b       _fflush                    1003025b f   libucrt:fflush.obj
 0001:0002f2b4       __fgetc_nolock             100302b4 f   libucrt:fgetc.obj
 0001:0002f2f0       __getc_nolock              100302f0 f   libucrt:fgetc.obj
 0001:0002f2fb       _fgetc                     100302fb f   libucrt:fgetc.obj
 0001:0002f3fd       _fgetpos                   100303fd f   libucrt:fgetpos.obj
 0001:0002f458       __fputc_nolock             10030458 f   libucrt:fputc.obj
 0001:0002f481       _fputc                     10030481 f   libucrt:fputc.obj
 0001:0002f585       _fsetpos                   10030585 f   libucrt:fsetpos.obj
 0001:0002f5c0       ?LongLongSub@@YAJ_J0PA_J@Z 100305c0 f i libucrt:fseek.obj
 0001:0002f87a       __fseeki64                 1003087a f   libucrt:fseek.obj
 0001:0002f895       ??$?RV<lambda_11b4f7b0d3157825a5656a18eba1ae27>@@AAV<lambda_b51c0495177f500e782686251704ae76>@@V<lambda_cf89b47920b5017557bfe891e78aca36>@@@?$__crt_seh_guarded_call@I@@QAEI$$QAV<lambda_11b4f7b0d3157825a5656a18eba1ae27>@@AAV<lambda_b51c0495177f500e782686251704ae76>@@$$QAV<lambda_cf89b47920b5017557bfe891e78aca36>@@@Z 10030895 f i libucrt:fwrite.obj
 0001:0002f8e6       ??$__acrt_lock_stream_and_call@V<lambda_b51c0495177f500e782686251704ae76>@@@@YAIQAU_iobuf@@$$QAV<lambda_b51c0495177f500e782686251704ae76>@@@Z 100308e6 f i libucrt:fwrite.obj
 0001:0002f954       __fwrite_nolock            10030954 f   libucrt:fwrite.obj
 0001:0002facd       _fwrite                    10030acd f   libucrt:fwrite.obj
 0001:0002fb25       ??$?RV<lambda_d92cfe8357b99225085016881b624cb0>@@AAV<lambda_b721fa326cdb32351d23dfa67958c160>@@V<lambda_42d75b0848218ec137fa420c8ba9fdf9>@@@?$__crt_seh_guarded_call@H@@QAEH$$QAV<lambda_d92cfe8357b99225085016881b624cb0>@@AAV<lambda_b721fa326cdb32351d23dfa67958c160>@@$$QAV<lambda_42d75b0848218ec137fa420c8ba9fdf9>@@@Z 10030b25 f i libucrt:setvbuf.obj
 0001:0002fb76       ??$__acrt_lock_stream_and_call@V<lambda_b721fa326cdb32351d23dfa67958c160>@@@@YAHQAU_iobuf@@$$QAV<lambda_b721fa326cdb32351d23dfa67958c160>@@@Z 10030b76 f i libucrt:setvbuf.obj
 0001:0002fc6b       _setvbuf                   10030c6b f   libucrt:setvbuf.obj
 0001:0002fce1       __ungetc_nolock            10030ce1 f   libucrt:ungetc.obj
 0001:0002fdd0       _ungetc                    10030dd0 f   libucrt:ungetc.obj
 0001:0002fe40       ___acrt_initialize_locks   10030e40 f   libucrt:locks.obj
 0001:0002fe81       ___acrt_lock               10030e81 f   libucrt:locks.obj
 0001:0002fe98       ___acrt_uninitialize_locks 10030e98 f   libucrt:locks.obj
 0001:0002fec9       ___acrt_unlock             10030ec9 f   libucrt:locks.obj
 0001:0002fee0       __lock_locales             10030ee0 f   libucrt:locks.obj
 0001:0002fee9       __unlock_locales           10030ee9 f   libucrt:locks.obj
 0001:0002fef2       __calloc_base              10030ef2 f   libucrt:calloc_base.obj
 0001:0002ff4f       ___pctype_func             10030f4f f   libucrt:ctype.obj
 0001:0002ff75       __wcsdup                   10030f75 f   libucrt:wcsdup.obj
 0001:0002ffd6       ____lc_codepage_func       10030fd6 f   libucrt:initctype.obj
 0001:0002fffd       ____lc_locale_name_func    10030ffd f   libucrt:initctype.obj
 0001:00030026       ___acrt_locale_initialize_ctype 10031026 f   libucrt:initctype.obj
 0001:00030461       _setlocale                 10031461 f   libucrt:setlocale.obj
 0001:000305be       _abort                     100315be f   libucrt:abort.obj
 0001:00030601       ___strncnt                 10031601 f   libucrt:strncnt.obj
 0001:0003061d       __free_base                1003161d f   libucrt:free_base.obj
 0001:00030657       __malloc_base              10031657 f   libucrt:malloc_base.obj
 0001:000306a5       __realloc_base             100316a5 f   libucrt:realloc_base.obj
 0001:00030710       ?divide@__crt_strtox@@YA_KAAUbig_integer@1@ABU21@@Z 10031710 f i libucrt:strtod.obj
 0001:00030bc0       _strcspn                   10031bc0 f   libucrt:strcspn.obj
 0001:00030c10       _pow                       10031c10 f   libucrt:pow.obj
 0001:00030c50       __CIpow                    10031c50 f   libucrt:pow.obj
 0001:00030c8b       __CIpow_default            10031c8b f   libucrt:pow.obj
 0001:00030ca4       __pow_default              10031ca4     libucrt:pow.obj
 0001:00030e99       _wcscpy_s                  10031e99 f   libucrt:wcscpy_s.obj
 0001:00030efd       _strnlen                   10031efd f   libucrt:strnlen.obj
 0001:00031024       _wcsnlen                   10032024 f   libucrt:strnlen.obj
 0001:00031234       __ismbblead                10032234 f   libucrt:ismbbyte.obj
 0001:000313b3       __tolower_l                100323b3 f   libucrt:tolower_toupper.obj
 0001:000313cd       _tolower                   100323cd f   libucrt:tolower_toupper.obj
 0001:000313fd       ___acrt_initialize_new_handler 100323fd f   libucrt:new_handler.obj
 0001:00031411       __callnewh                 10032411 f   libucrt:new_handler.obj
 0001:00031455       __query_new_handler        10032455 f   libucrt:new_handler.obj
 0001:000314a7       __seh_filter_dll           100324a7 f   libucrt:exception_filter.obj
 0001:000314c7       __seh_filter_exe           100324c7 f   libucrt:exception_filter.obj
 0001:00031855       ___acrt_initialize_thread_local_exit_callback 10032855 f   libucrt:exit.obj
 0001:00031864       __cexit                    10032864 f   libucrt:exit.obj
 0001:00031873       __exit                     10032873 f   libucrt:exit.obj
 0001:00031889       __is_c_termination_complete 10032889 f   libucrt:exit.obj
 0001:00031b28       ___acrt_allocate_buffer_for_argv 10032b28 f   libucrt:argv_parsing.obj
 0001:00031b7d       __configure_narrow_argv    10032b7d f   libucrt:argv_parsing.obj
 0001:00031ce1       ??$uninitialize@A6AXAAPAPAD@Z@?$dual_state_global@PAPAD@__crt_state_management@@QAEXA6AXAAPAPAD@Z@Z 10032ce1 f i libucrt:environment_initialization.obj
 0001:00031ce1       ??$uninitialize@A6AXAAPAPA_W@Z@?$dual_state_global@PAPA_W@__crt_state_management@@QAEXA6AXAAPAPA_W@Z@Z 10032ce1 f i libucrt:environment_initialization.obj
 0001:00031d57       ___dcrt_uninitialize_environments_nolock 10032d57 f   libucrt:environment_initialization.obj
 0001:00031d8e       __initialize_narrow_environment 10032d8e f   libucrt:environment_initialization.obj
 0001:00031d93       ??$?RV<lambda_800076c951b434888f4765a74a194fcc>@@AAV<lambda_4e60a939b0d047cfe11ddc22648dfba9>@@V<lambda_6dbb1268764f43b569ce7b67e331d33a>@@@?$__crt_seh_guarded_call@H@@QAEH$$QAV<lambda_800076c951b434888f4765a74a194fcc>@@AAV<lambda_4e60a939b0d047cfe11ddc22648dfba9>@@$$QAV<lambda_6dbb1268764f43b569ce7b67e331d33a>@@@Z 10032d93 f i libucrt:onexit.obj
 0001:00031de4       ??$?RV<lambda_995298e7d72eb4c2aab26c0585b3abe5>@@AAV<lambda_275893d493268fdec8709772e3fcec0e>@@V<lambda_293819299cbf9a7022e18b56a874bb5c>@@@?$__crt_seh_guarded_call@H@@QAEH$$QAV<lambda_995298e7d72eb4c2aab26c0585b3abe5>@@AAV<lambda_275893d493268fdec8709772e3fcec0e>@@$$QAV<lambda_293819299cbf9a7022e18b56a874bb5c>@@@Z 10032de4 f i libucrt:onexit.obj
 0001:00031e35       ??$__acrt_lock_and_call@V<lambda_275893d493268fdec8709772e3fcec0e>@@@@YAHW4__acrt_lock_id@@$$QAV<lambda_275893d493268fdec8709772e3fcec0e>@@@Z 10032e35 f i libucrt:onexit.obj
 0001:00031e5d       ??$__acrt_lock_and_call@V<lambda_4e60a939b0d047cfe11ddc22648dfba9>@@@@YAHW4__acrt_lock_id@@$$QAV<lambda_4e60a939b0d047cfe11ddc22648dfba9>@@@Z 10032e5d f i libucrt:onexit.obj
 0001:000320e6       __crt_atexit               100330e6 f   libucrt:onexit.obj
 0001:000320fc       __execute_onexit_table     100330fc f   libucrt:onexit.obj
 0001:00032119       __initialize_onexit_table  10033119 f   libucrt:onexit.obj
 0001:00032156       __register_onexit_function 10033156 f   libucrt:onexit.obj
 0001:000321ae       ___acrt_uninitialize_command_line 100331ae f   libucrt:argv_data.obj
 0001:000321ae       ?do_always_noconv@?$codecvt@DDU_Mbstatet@@@std@@MBE_NXZ 100331ae f   libcpmt:cout.obj
 0001:0003226e       ___acrt_initialize         1003326e f   libucrt:initialization.obj
 0001:00032280       ___acrt_thread_attach      10033280 f   libucrt:initialization.obj
 0001:0003228b       ___acrt_thread_detach      1003328b f   libucrt:initialization.obj
 0001:00032293       ___acrt_uninitialize       10033293 f   libucrt:initialization.obj
 0001:000322a5       ___acrt_uninitialize_critical 100332a5 f   libucrt:initialization.obj
 0001:000322b7       __initterm                 100332b7 f   libucrt:initterm.obj
 0001:00032313       __initterm_e               10033313 f   libucrt:initterm.obj
 0001:00032358       _terminate                 10033358 f   libucrt:terminate.obj
 0001:00032394       __strdup                   10033394 f   libucrt:strdup.obj
 0001:00032394       _strdup                    10033394 f   libucrt:strdup.obj
 0001:000323ea       _strcpy_s                  100333ea f   libucrt:strcpy_s.obj
 0001:00032444       __query_app_type           10033444 f   libucrt:report_runtime_error.obj
 0001:00032537       __itow_s                   10033537 f   libucrt:xtoa.obj
 0001:0003256c       __set_error_mode           1003356c f   libucrt:set_error_mode.obj
 0001:000325ab       _wcscat_s                  100335ab f   libucrt:wcscat_s.obj
 0001:00032709       _wcsncat_s                 10033709 f   libucrt:wcsncat_s.obj
 0001:0003280f       ___acrt_show_wide_message_box 1003380f f   libucrt:crtmbox.obj
 0001:0003281a       ??$?RV<lambda_a048d3beccc847880fc8490e18b82769>@@AAV<lambda_ec61778202f4f5fc7e7711acc23c3bca>@@V<lambda_f7496a158712204296dd6628a163878e>@@@?$__crt_seh_guarded_call@P6AXH@Z@@QAEP6AXH@Z$$QAV<lambda_a048d3beccc847880fc8490e18b82769>@@AAV<lambda_ec61778202f4f5fc7e7711acc23c3bca>@@$$QAV<lambda_f7496a158712204296dd6628a163878e>@@@Z 1003381a f i libucrt:signal.obj
 0001:00032874       ??$__acrt_lock_and_call@V<lambda_ec61778202f4f5fc7e7711acc23c3bca>@@@@YAP6AXH@ZW4__acrt_lock_id@@$$QAV<lambda_ec61778202f4f5fc7e7711acc23c3bca>@@@Z 10033874 f i libucrt:signal.obj
 0001:00032906       ___acrt_get_sigabrt_handler 10033906 f   libucrt:signal.obj
 0001:0003291d       ___acrt_initialize_signal_handlers 1003391d f   libucrt:signal.obj
 0001:00032958       ___fpecode                 10033958 f   libucrt:signal.obj
 0001:00032961       _raise                     10033961 f   libucrt:signal.obj
 0001:00032b69       ??$?RV<lambda_3518db117f0e7cdb002338c5d3c47b6c>@@AAV<lambda_b2ea41f6bbb362cd97d94c6828d90b61>@@V<lambda_abdedf541bb04549bc734292b4a045d4>@@@?$__crt_seh_guarded_call@X@@QAEX$$QAV<lambda_3518db117f0e7cdb002338c5d3c47b6c>@@AAV<lambda_b2ea41f6bbb362cd97d94c6828d90b61>@@$$QAV<lambda_abdedf541bb04549bc734292b4a045d4>@@@Z 10033b69 f i libucrt:per_thread_data.obj
 0001:00032bb9       ??$?RV<lambda_51b6e8b1eb166f2a3faf91f424b38130>@@AAV<lambda_6250bd4b2a391816dd638c3bf72b0bcb>@@V<lambda_0b5a4a3e68152e1d9b943535f5f47bed>@@@?$__crt_seh_guarded_call@X@@QAEX$$QAV<lambda_51b6e8b1eb166f2a3faf91f424b38130>@@AAV<lambda_6250bd4b2a391816dd638c3bf72b0bcb>@@$$QAV<lambda_0b5a4a3e68152e1d9b943535f5f47bed>@@@Z 10033bb9 f i libucrt:per_thread_data.obj
 0001:00032c1a       ??$?RV<lambda_5b71d36f03204c0beab531769a5b5694>@@AAV<lambda_be2b3da3f62db62e9dad5dc70221a656>@@V<lambda_8f9ce462984622f9bf76b59e2aaaf805>@@@?$__crt_seh_guarded_call@X@@QAEX$$QAV<lambda_5b71d36f03204c0beab531769a5b5694>@@AAV<lambda_be2b3da3f62db62e9dad5dc70221a656>@@$$QAV<lambda_8f9ce462984622f9bf76b59e2aaaf805>@@@Z 10033c1a f i libucrt:per_thread_data.obj
 0001:00032c65       ??$?RV<lambda_9df27f884b057bc3edfc946cb5b7cf47>@@AAV<lambda_e69574bed617af4e071282c136b37893>@@V<lambda_cc0d902bcbbeb830f749456577db4721>@@@?$__crt_seh_guarded_call@X@@QAEX$$QAV<lambda_9df27f884b057bc3edfc946cb5b7cf47>@@AAV<lambda_e69574bed617af4e071282c136b37893>@@$$QAV<lambda_cc0d902bcbbeb830f749456577db4721>@@@Z 10033c65 f i libucrt:per_thread_data.obj
 0001:00032cad       ??$__acrt_lock_and_call@V<lambda_6250bd4b2a391816dd638c3bf72b0bcb>@@@@YAXW4__acrt_lock_id@@$$QAV<lambda_6250bd4b2a391816dd638c3bf72b0bcb>@@@Z 10033cad f i libucrt:per_thread_data.obj
 0001:00032cd5       ??$__acrt_lock_and_call@V<lambda_b2ea41f6bbb362cd97d94c6828d90b61>@@@@YAXW4__acrt_lock_id@@$$QAV<lambda_b2ea41f6bbb362cd97d94c6828d90b61>@@@Z 10033cd5 f i libucrt:per_thread_data.obj
 0001:00032cfd       ??$__acrt_lock_and_call@V<lambda_be2b3da3f62db62e9dad5dc70221a656>@@@@YAXW4__acrt_lock_id@@$$QAV<lambda_be2b3da3f62db62e9dad5dc70221a656>@@@Z 10033cfd f i libucrt:per_thread_data.obj
 0001:00032d25       ??$__acrt_lock_and_call@V<lambda_e69574bed617af4e071282c136b37893>@@@@YAXW4__acrt_lock_id@@$$QAV<lambda_e69574bed617af4e071282c136b37893>@@@Z 10033d25 f i libucrt:per_thread_data.obj
 0001:00032edb       ___acrt_freeptd            10033edb f   libucrt:per_thread_data.obj
 0001:00032f07       ___acrt_getptd             10033f07 f   libucrt:per_thread_data.obj
 0001:00032f8b       ___acrt_getptd_noexit      10033f8b f   libucrt:per_thread_data.obj
 0001:00033010       ___acrt_initialize_ptd     10034010 f   libucrt:per_thread_data.obj
 0001:0003303c       ___acrt_uninitialize_ptd   1003403c f   libucrt:per_thread_data.obj
 0001:00033056       ___acrt_update_locale_info 10034056 f   libucrt:locale_update.obj
 0001:00033083       ___acrt_update_multibyte_info 10034083 f   libucrt:locale_update.obj
 0001:000330b0       ??$?RV<lambda_70818de7b02deff9841e8b0962a60ed9>@@AAV<lambda_2af78c5f5901b1372d98f9ab3177dfa6>@@AAV<lambda_f51fe5fd7c79a33db34fc9310f277369>@@@?$__crt_seh_guarded_call@X@@QAEX$$QAV<lambda_70818de7b02deff9841e8b0962a60ed9>@@AAV<lambda_2af78c5f5901b1372d98f9ab3177dfa6>@@AAV<lambda_f51fe5fd7c79a33db34fc9310f277369>@@@Z 100340b0 f i libucrt:wsetlocale.obj
 0001:000330eb       ??$?RV<lambda_c76fdea48760d5f9368b465f31df4405>@@AAV<lambda_e378711a6f6581bf7f0efd7cdf97f5d9>@@V<lambda_e927a58b2a85c081d733e8c6192ae2d2>@@@?$__crt_seh_guarded_call@X@@QAEX$$QAV<lambda_c76fdea48760d5f9368b465f31df4405>@@AAV<lambda_e378711a6f6581bf7f0efd7cdf97f5d9>@@$$QAV<lambda_e927a58b2a85c081d733e8c6192ae2d2>@@@Z 100340eb f i libucrt:wsetlocale.obj
 0001:0003312e       ??$__acrt_lock_and_call@V<lambda_e378711a6f6581bf7f0efd7cdf97f5d9>@@@@YAXW4__acrt_lock_id@@$$QAV<lambda_e378711a6f6581bf7f0efd7cdf97f5d9>@@@Z 1003412e f i libucrt:wsetlocale.obj
 0001:000332b0       ___acrt_copy_locale_name   100342b0 f   libucrt:wsetlocale.obj
 0001:00033316       ___acrt_set_locale_changed 10034316 f   libucrt:wsetlocale.obj
 0001:00033321       ___acrt_uninitialize_locale 10034321 f   libucrt:wsetlocale.obj
 0001:00033373       ___lc_lctowcs              10034373 f   libucrt:wsetlocale.obj
 0001:000333e3       ___lc_wcstolc              100343e3 f   libucrt:wsetlocale.obj
 0001:00033541       __expandlocale             10034541 f   libucrt:wsetlocale.obj
 0001:000338b8       __wcscats                  100348b8 f   libucrt:wsetlocale.obj
 0001:000338f9       __wsetlocale               100348f9 f   libucrt:wsetlocale.obj
 0001:000341c3       _strtol                    100351c3 f   libucrt:strtox.obj
 0001:000341ef       _wcstol                    100351ef f   libucrt:strtox.obj
 0001:0003421b       __mbtowc_l                 1003521b f   libucrt:mbtowc.obj
 0001:00034315       _mbtowc                    10035315 f   libucrt:mbtowc.obj
 0001:0003432f       __wctomb_s_l               1003532f f   libucrt:wctomb.obj
 0001:00034450       _wctomb_s                  10035450 f   libucrt:wctomb.obj
 0001:0003446d       ?__acrt_fp_classify@@YA?AW4__acrt_fp_class@@ABN@Z 1003546d f i libucrt:cvt.obj
 0001:000344d9       ?__acrt_fp_is_negative@@YA_NABN@Z 100354d9 f i libucrt:cvt.obj
 0001:00034d38       ___acrt_fp_format          10035d38 f   libucrt:cvt.obj
 0001:00034eb4       __fputwc_nolock            10035eb4 f   libucrt:fputwc.obj
 0001:00034fda       __fileno                   10035fda f   libucrt:fileno.obj
 0001:00035000       __get_printf_count_output  10036000 f   libucrt:printf_count_output.obj
 0001:00035015       ___acrt_stdio_begin_temporary_buffering_nolock 10036015 f   libucrt:_sftbuf.obj
 0001:000350ca       ___acrt_stdio_end_temporary_buffering_nolock 100360ca f   libucrt:_sftbuf.obj
 0001:0003526f       ___acrt_initialize_lowio   1003626f f   libucrt:ioinit.obj
 0001:000352c5       ___acrt_uninitialize_lowio 100362c5 f   libucrt:ioinit.obj
 0001:00035337       ??$?RV<lambda_9227be29367c048ad7fd93a717dcb1a1>@@AAV<lambda_a463b7b0560cfcaf9b17f27c6ef46564>@@V<lambda_ccea11b5727ccf69be64f5f5d9a08d9f>@@@?$__crt_seh_guarded_call@H@@QAEH$$QAV<lambda_9227be29367c048ad7fd93a717dcb1a1>@@AAV<lambda_a463b7b0560cfcaf9b17f27c6ef46564>@@$$QAV<lambda_ccea11b5727ccf69be64f5f5d9a08d9f>@@@Z 10036337 f i libucrt:winapi_thunks.obj
 0001:000353bb       ??$__acrt_lock_and_call@V<lambda_a463b7b0560cfcaf9b17f27c6ef46564>@@@@YAHW4__acrt_lock_id@@$$QAV<lambda_a463b7b0560cfcaf9b17f27c6ef46564>@@@Z 100363bb f i libucrt:winapi_thunks.obj
 0001:000353e3       ??$__crt_fast_encode_pointer@P6AHXZ@@YAP6AHXZQ6AHXZ@Z 100363e3 f i libucrt:onexit.obj
 0001:000353e3       ??$__crt_fast_encode_pointer@P6GHPA_WKJ@Z@@YAP6GHPA_WKJ@ZQ6GH0KJ@Z@Z 100363e3 f i libucrt:winapi_thunks.obj
 0001:00035567       ___acrt_AreFileApisANSI@0  10036567 f   libucrt:winapi_thunks.obj
 0001:000355b5       ___acrt_EnumSystemLocalesEx@16 100365b5 f   libucrt:winapi_thunks.obj
 0001:00035622       ___acrt_FlsAlloc@4         10036622 f   libucrt:winapi_thunks.obj
 0001:00035678       ___acrt_FlsFree@4          10036678 f   libucrt:winapi_thunks.obj
 0001:000356ce       ___acrt_FlsGetValue@4      100366ce f   libucrt:winapi_thunks.obj
 0001:00035724       ___acrt_FlsSetValue@8      10036724 f   libucrt:winapi_thunks.obj
 0001:0003577d       ___acrt_GetLocaleInfoEx@16 1003677d f   libucrt:winapi_thunks.obj
 0001:000357e7       ___acrt_GetUserDefaultLocaleName@8 100367e7 f   libucrt:winapi_thunks.obj
 0001:0003584e       ___acrt_InitializeCriticalSectionEx@12 1003684e f   libucrt:winapi_thunks.obj
 0001:000358b0       ___acrt_IsValidLocaleName@4 100368b0 f   libucrt:winapi_thunks.obj
 0001:00035913       ___acrt_LCIDToLocaleName@16 10036913 f   libucrt:winapi_thunks.obj
 0001:0003597d       ___acrt_LCMapStringEx@36   1003697d f   libucrt:winapi_thunks.obj
 0001:00035a05       ___acrt_LocaleNameToLCID@8 10036a05 f   libucrt:winapi_thunks.obj
 0001:00035a61       ___acrt_MessageBoxW@16     10036a61 f   libucrt:winapi_thunks.obj
 0001:00035aaa       ___acrt_can_show_message_box 10036aaa f   libucrt:winapi_thunks.obj
 0001:00035ac3       ___acrt_can_use_vista_locale_apis 10036ac3 f   libucrt:winapi_thunks.obj
 0001:00035acf       ___acrt_get_parent_window  10036acf f   libucrt:winapi_thunks.obj
 0001:00035b4e       ___acrt_initialize_winapi_thunks 10036b4e f   libucrt:winapi_thunks.obj
 0001:00035b74       ___acrt_is_interactive     10036b74 f   libucrt:winapi_thunks.obj
 0001:00035c1a       ___acrt_is_packaged_app    10036c1a f   libucrt:winapi_thunks.obj
 0001:00035ca1       ___acrt_uninitialize_winapi_thunks 10036ca1 f   libucrt:winapi_thunks.obj
 0001:00035cd7       __fcloseall                10036cd7 f   libucrt:closeall.obj
 0001:00035d77       ___acrt_stdio_free_buffer_nolock 10036d77 f   libucrt:_freebuf.obj
 0001:00035db5       _iswctype                  10036db5 f   libucrt:iswctype.obj
 0001:00035e14       __isctype_l                10036e14 f   libucrt:isctype.obj
 0001:00035ee6       ?__acrt_stdio_allocate_stream@@YA?AV__crt_stdio_stream@@XZ 10036ee6 f   libucrt:stream.obj
 0001:00035f45       ?__acrt_stdio_free_stream@@YAXV__crt_stdio_stream@@@Z 10036f45 f   libucrt:stream.obj
 0001:00036043       ??$__acrt_stdio_parse_mode@D@@YA?AU__acrt_stdio_stream_mode@@QBD@Z 10037043 f i libucrt:openfile.obj
 0001:000362fa       ?__acrt_stdio_parse_mode_D@@YA_NAAU__acrt_stdio_stream_mode@@@Z 100372fa f i libucrt:openfile.obj
 0001:00036315       ?__acrt_stdio_parse_mode_T@@YA_NAAU__acrt_stdio_stream_mode@@@Z 10037315 f i libucrt:openfile.obj
 0001:00036334       ?__acrt_stdio_parse_mode_b@@YA_NAAU__acrt_stdio_stream_mode@@@Z 10037334 f i libucrt:openfile.obj
 0001:00036354       ?__acrt_stdio_parse_mode_c@@YA_NAAU__acrt_stdio_stream_mode@@AA_N@Z 10037354 f i libucrt:openfile.obj
 0001:00036376       ?__acrt_stdio_parse_mode_n@@YA_NAAU__acrt_stdio_stream_mode@@AA_N@Z 10037376 f i libucrt:openfile.obj
 0001:00036398       ?__acrt_stdio_parse_mode_plus@@YA_NAAU__acrt_stdio_stream_mode@@AA_N@Z 10037398 f i libucrt:openfile.obj
 0001:000363cd       ?__acrt_stdio_parse_mode_t@@YA_NAAU__acrt_stdio_stream_mode@@@Z 100373cd f i libucrt:openfile.obj
 0001:000363ed       __openfile                 100373ed f   libucrt:openfile.obj
 0001:000363f8       ??$?RV<lambda_123407a5e2ac06da108355a851863b7a>@@AAV<lambda_2fe9b910cf3cbf4a0ab98a02ba45b3ec>@@V<lambda_ae55bdf541ad94d75914d381c370e64d>@@@?$__crt_seh_guarded_call@H@@QAEH$$QAV<lambda_123407a5e2ac06da108355a851863b7a>@@AAV<lambda_2fe9b910cf3cbf4a0ab98a02ba45b3ec>@@$$QAV<lambda_ae55bdf541ad94d75914d381c370e64d>@@@Z 100373f8 f i libucrt:close.obj
 0001:0003647a       ??$__acrt_lowio_lock_fh_and_call@V<lambda_2fe9b910cf3cbf4a0ab98a02ba45b3ec>@@@@YAHH$$QAV<lambda_2fe9b910cf3cbf4a0ab98a02ba45b3ec>@@@Z 1003747a f i libucrt:close.obj
 0001:000364a2       __close                    100374a2 f   libucrt:close.obj
 0001:00036521       __close_nolock             10037521 f   libucrt:close.obj
 0001:00036aa5       __read                     10037aa5 f   libucrt:read.obj
 0001:00036bb8       __read_nolock              10037bb8 f   libucrt:read.obj
 0001:000370ee       ___acrt_stdio_refill_and_read_narrow_nolock 100380ee f   libucrt:_filbuf.obj
 0001:000370f9       ??$?RV<lambda_61cee617f5178ae960314fd4d05640a0>@@AAV<lambda_6978c1fb23f02e42e1d9e99668cc68aa>@@V<lambda_9cd88cf8ad10232537feb2133f08c833>@@@?$__crt_seh_guarded_call@H@@QAEH$$QAV<lambda_61cee617f5178ae960314fd4d05640a0>@@AAV<lambda_6978c1fb23f02e42e1d9e99668cc68aa>@@$$QAV<lambda_9cd88cf8ad10232537feb2133f08c833>@@@Z 100380f9 f i libucrt:commit.obj
 0001:00037191       ??$__acrt_lowio_lock_fh_and_call@V<lambda_6978c1fb23f02e42e1d9e99668cc68aa>@@@@YAHH$$QAV<lambda_6978c1fb23f02e42e1d9e99668cc68aa>@@@Z 10038191 f i libucrt:commit.obj
 0001:000371b9       __commit                   100381b9 f   libucrt:commit.obj
 0001:000377b8       __write                    100387b8 f   libucrt:write.obj
 0001:000378a3       __write_nolock             100388a3 f   libucrt:write.obj
 0001:00037fdf       __ftelli64                 10038fdf f   libucrt:ftell.obj
 0001:00037fea       __ftelli64_nolock          10038fea f   libucrt:ftell.obj
 0001:000383bb       ___acrt_stdio_flush_and_write_narrow_nolock 100393bb f   libucrt:_flsbuf.obj
 0001:000383c6       ___acrt_stdio_flush_and_write_wide_nolock 100393c6 f   libucrt:_flsbuf.obj
 0001:00038554       __lseeki64                 10039554 f   libucrt:lseek.obj
 0001:0003856f       __lseeki64_nolock          1003956f f   libucrt:lseek.obj
 0001:0003858a       ___acrt_stdio_allocate_buffer_nolock 1003958a f   libucrt:_getbuf.obj
 0001:000385e7       __query_new_mode           100395e7 f   libucrt:new_mode.obj
 0001:000385ed       ___acrt_initialize_heap    100395ed f   libucrt:heap_handle.obj
 0001:000385fe       ___acrt_uninitialize_heap  100395fe f   libucrt:heap_handle.obj
 0001:00038703       ___acrt_GetLocaleInfoA     10039703 f   libucrt:getlocaleinfoa.obj
 0001:000388b5       ___acrt_GetStringTypeA     100398b5 f   libucrt:getstringtypea.obj
 0001:00038bef       ___acrt_LCMapStringA       10039bef f   libucrt:lcmapstringa.obj
 0001:00038db3       __mbstowcs_s_l             10039db3 f   libucrt:mbstowcs.obj
 0001:00038e96       _mbstowcs_s                10039e96 f   libucrt:mbstowcs.obj
 0001:00039139       __wcstombs_s_l             1003a139 f   libucrt:wcstombs.obj
 0001:00039206       __errcode                  1003a206 f   libucrt:fpexcept.obj
 0001:0003923a       __except1                  1003a23a f   libucrt:fpexcept.obj
 0001:00039308       __handle_exc               1003a308 f   libucrt:fpexcept.obj
 0001:000394e8       __raise_exc                1003a4e8 f   libucrt:fpexcept.obj
 0001:0003950b       __raise_exc_ex             1003a50b f   libucrt:fpexcept.obj
 0001:000397fc       __set_errno_from_matherr   1003a7fc f   libucrt:fpexcept.obj
 0001:0003982b       __umatherr                 1003a82b f   libucrt:fpexcept.obj
 0001:000398cd       __decomp                   1003a8cd f   libucrt:util.obj
 0001:000399a1       __set_exp                  1003a9a1 f   libucrt:util.obj
 0001:000399d0       __sptype                   1003a9d0 f   libucrt:util.obj
 0001:00039a2e       __clrfp                    1003aa2e f   libucrt:fpctrl.obj
 0001:00039a41       __ctrlfp                   1003aa41 f   libucrt:fpctrl.obj
 0001:00039a6d       __set_statfp               1003aa6d f   libucrt:fpctrl.obj
 0001:00039ac8       __statfp                   1003aac8 f   libucrt:fpctrl.obj
 0001:00039ada       __fpclass                  1003aada f   libucrt:ieeemisc.obj
 0001:00039b7e       ___acrt_initialize_sse2    1003ab7e f   libucrt:mathfcns.obj
 0001:00039b90       __CIpow_pentium4           1003ab90 f   libucrt:pow_pentium4.obj
 0001:00039ba9       __pow_pentium4             1003aba9     libucrt:pow_pentium4.obj
 0001:0003a6c1       __fFEXP                    1003b6c1     libucrt:87tran.obj
 0001:0003a718       __rtinfpopse               1003b718     libucrt:87tran.obj
 0001:0003a71a       __rtinfnpopse              1003b71a     libucrt:87tran.obj
 0001:0003a72a       __fFLN                     1003b72a     libucrt:87tran.obj
 0001:0003a7df       __rtinfpop                 1003b7df     libucrt:87tran.obj
 0001:0003a7e1       __rtinfnpop                1003b7e1     libucrt:87tran.obj
 0001:0003a7fe       __ffexpm1                  1003b7fe     libucrt:87tran.obj
 0001:0003a8b0       __trandisp1                1003b8b0 f   libucrt:87disp.obj
 0001:0003a917       __trandisp2                1003b917 f   libucrt:87disp.obj
 0001:0003a9a3       __rttospopde               1003b9a3     libucrt:87disp.obj
 0001:0003a9a8       __rttospop                 1003b9a8     libucrt:87disp.obj
 0001:0003a9aa       __rtnospop                 1003b9aa     libucrt:87disp.obj
 0001:0003a9ac       __rttosnpop                1003b9ac     libucrt:87disp.obj
 0001:0003a9ad       __rtnospopde               1003b9ad     libucrt:87disp.obj
 0001:0003a9b4       __rtzeropop                1003b9b4     libucrt:87disp.obj
 0001:0003a9b6       __rtzeronpop               1003b9b6     libucrt:87disp.obj
 0001:0003a9bb       __rtzerospop               1003b9bb     libucrt:87disp.obj
 0001:0003a9c8       __rtonepop                 1003b9c8     libucrt:87disp.obj
 0001:0003a9ca       __rtonenpop                1003b9ca     libucrt:87disp.obj
 0001:0003a9cf       __tosnan1                  1003b9cf     libucrt:87disp.obj
 0001:0003a9fa       __nosnan2                  1003b9fa     libucrt:87disp.obj
 0001:0003a9fc       __tosnan2                  1003b9fc     libucrt:87disp.obj
 0001:0003aa24       __nan2                     1003ba24     libucrt:87disp.obj
 0001:0003aa63       __rtindfpop                1003ba63     libucrt:87disp.obj
 0001:0003aa65       __rtindfnpop               1003ba65     libucrt:87disp.obj
 0001:0003aa76       __rttosnpopde              1003ba76     libucrt:87disp.obj
 0001:0003aa80       __rtatan2inf               1003ba80     libucrt:87disp.obj
 0001:0003aa9d       __rtchsifneg               1003ba9d     libucrt:87disp.obj
 0001:0003aab0       __startTwoArgErrorHandling 1003bab0 f   libucrt:genexcep.obj
 0001:0003aac7       __startOneArgErrorHandling 1003bac7 f   libucrt:genexcep.obj
 0001:0003ab10       __twoToTOS                 1003bb10 f   libucrt:common.obj
 0001:0003ab25       __load_CW                  1003bb25 f   libucrt:common.obj
 0001:0003ab3c       __convertTOStoQNaN         1003bb3c f   libucrt:common.obj
 0001:0003ab55       __fload_withFB             1003bb55 f   libucrt:common.obj
 0001:0003ab98       __checkTOS_withFB          1003bb98 f   libucrt:common.obj
 0001:0003abae       __fast_exit                1003bbae f   libucrt:common.obj
 0001:0003abbb       __math_exit                1003bbbb f   libucrt:common.obj
 0001:0003abe5       __check_overflow_exit      1003bbe5 f   libucrt:common.obj
 0001:0003abf9       __check_range_exit         1003bbf9 f   libucrt:common.obj
 0001:0003ac9c       __d_inttype                1003bc9c f   libucrt:powhlp.obj
 0001:0003ad06       __powhlp                   1003bd06 f   libucrt:powhlp.obj
 0001:0003ae31       __wcsicmp                  1003be31 f   libucrt:wcsicmp.obj
 0001:0003aec6       __wcsicmp_l                1003bec6 f   libucrt:wcsicmp.obj
 0001:0003afa6       ?initialize@?$dual_state_global@P6AXH@Z@__crt_state_management@@QAEXQ6AXH@Z@Z 1003bfa6 f i libucrt:signal.obj
 0001:0003afa6       ?initialize@?$dual_state_global@P6AXPB_W00II@Z@__crt_state_management@@QAEXQ6AXPB_W00II@Z@Z 1003bfa6 f i libucrt:invalid_parameter.obj
 0001:0003afa6       ?initialize@?$dual_state_global@H@__crt_state_management@@QAEXH@Z 1003bfa6 f i libucrt:timeset.obj
 0001:0003afa6       ?initialize@?$dual_state_global@J@__crt_state_management@@QAEXJ@Z 1003bfa6 f i libucrt:timeset.obj
 0001:0003afa6       ?initialize@?$dual_state_global@PAPAD@__crt_state_management@@QAEXQAPAD@Z 1003bfa6 f i libucrt:environment_initialization.obj
 0001:0003afa6       ?initialize@?$dual_state_global@P6AHI@Z@__crt_state_management@@QAEXQ6AHI@Z@Z 1003bfa6 f i libucrt:new_handler.obj
 0001:0003afa6       ?initialize@?$dual_state_global@PAU__crt_locale_data@@@__crt_state_management@@QAEXQAU__crt_locale_data@@@Z 1003bfa6 f i libucrt:initialization.obj
 0001:0003afa6       ?initialize@?$dual_state_global@P6AHPAU_exception@@@Z@__crt_state_management@@QAEXQ6AHPAU_exception@@@Z@Z 1003bfa6 f i libucrt:matherr.obj
 0001:0003afd7       ___acrt_initialize_timeset 1003bfd7 f   libucrt:timeset.obj
 0001:0003b00e       __isleadbyte_l             1003c00e f i libucrt:_wctype.obj
 0001:0003b409       ??1?$argument_list@D@?A0xb0e4b824@@QAE@XZ 1003c409 f i libucrt:argv_wildcards.obj
 0001:0003b42e       ?append@?$argument_list@D@?A0xb0e4b824@@QAEHQAD@Z 1003c42e f i libucrt:argv_wildcards.obj
 0001:0003b463       ?expand_if_necessary@?$argument_list@D@?A0xb0e4b824@@AAEHXZ 1003c463 f i libucrt:argv_wildcards.obj
 0001:0003b4ea       ___acrt_expand_narrow_argv_wildcards 1003c4ea f   libucrt:argv_wildcards.obj
 0001:0003b4f5       ??$?RV<lambda_978dc153c237d78434369da87b74ff60>@@AAV<lambda_ad1ced32f4ac17aa236e5ef05d6b3b7c>@@V<lambda_4a8533e2866a575feecb8298ce776b0d>@@@?$__crt_seh_guarded_call@X@@QAEX$$QAV<lambda_978dc153c237d78434369da87b74ff60>@@AAV<lambda_ad1ced32f4ac17aa236e5ef05d6b3b7c>@@$$QAV<lambda_4a8533e2866a575feecb8298ce776b0d>@@@Z 1003c4f5 f i libucrt:mbctype.obj
 0001:0003b538       ??$__acrt_lock_and_call@V<lambda_ad1ced32f4ac17aa236e5ef05d6b3b7c>@@@@YAXW4__acrt_lock_id@@$$QAV<lambda_ad1ced32f4ac17aa236e5ef05d6b3b7c>@@@Z 1003c538 f i libucrt:mbctype.obj
 0001:0003b9cf       ___acrt_initialize_multibyte 1003c9cf f   libucrt:mbctype.obj
 0001:0003b9ed       ___acrt_update_thread_multibyte_data 1003c9ed f   libucrt:mbctype.obj
 0001:0003ba8f       __setmbcp_nolock           1003ca8f f   libucrt:mbctype.obj
 0001:0003bc80       ___acrt_initialize_command_line 1003cc80 f   libucrt:argv_data.obj
 0001:0003bcd0       ___dcrt_get_narrow_environment_from_os 1003ccd0 f   libucrt:get_environment_from_os.obj
 0001:0003bd53       __recalloc                 1003cd53 f   libucrt:recalloc.obj
 0001:0003bd5e       __recalloc_base            1003cd5e f   libucrt:recalloc.obj
 0001:0003bdcb       ___acrt_execute_initializers 1003cdcb f   libucrt:shared_initialization.obj
 0001:0003be4e       ___acrt_execute_uninitializers 1003ce4e f   libucrt:shared_initialization.obj
 0001:0003be9b       ___acrt_has_user_matherr   1003ce9b f   libucrt:matherr.obj
 0001:0003beb4       ___acrt_initialize_user_matherr 1003ceb4 f   libucrt:matherr.obj
 0001:0003bec8       ___acrt_invoke_user_matherr 1003cec8 f   libucrt:matherr.obj
 0001:0003bfde       _wcsncpy_s                 1003cfde f   libucrt:wcsncpy_s.obj
 0001:0003bfe9       ___acrt_add_locale_ref     1003cfe9 f   libucrt:locale_refcounting.obj
 0001:0003c066       ___acrt_free_locale        1003d066 f   libucrt:locale_refcounting.obj
 0001:0003c1b0       ___acrt_locale_add_lc_time_reference 1003d1b0 f   libucrt:locale_refcounting.obj
 0001:0003c1d9       ___acrt_locale_free_lc_time_if_unreferenced 1003d1d9 f   libucrt:locale_refcounting.obj
 0001:0003c209       ___acrt_locale_release_lc_time_reference 1003d209 f   libucrt:locale_refcounting.obj
 0001:0003c232       ___acrt_release_locale_ref 1003d232 f   libucrt:locale_refcounting.obj
 0001:0003c2b3       ___acrt_update_thread_locale_data 1003d2b3 f   libucrt:locale_refcounting.obj
 0001:0003c32a       __updatetlocinfoEx_nolock  1003d32a f   libucrt:locale_refcounting.obj
 0001:0003c37a       ___acrt_locale_free_monetary 1003d37a f   libucrt:initmon.obj
 0001:0003c478       ___acrt_locale_initialize_monetary 1003d478 f   libucrt:initmon.obj
 0001:0003c834       ___acrt_locale_free_numeric 1003d834 f   libucrt:initnum.obj
 0001:0003c89d       ___acrt_locale_initialize_numeric 1003d89d f   libucrt:initnum.obj
 0001:0003cd72       ___acrt_locale_free_time   1003dd72 f   libucrt:inittime.obj
 0001:0003ce56       ___acrt_locale_initialize_time 1003de56 f   libucrt:inittime.obj
 0001:0003ced5       _wcscspn                   1003ded5 f   libucrt:wcscspn.obj
 0001:0003cf25       _wcsncmp                   1003df25 f   libucrt:wcsncmp.obj
 0001:0003cf5f       _wcspbrk                   1003df5f f   libucrt:wcspbrk.obj
 0001:0003d6a2       ___acrt_get_qualified_locale 1003e6a2 f   libucrt:get_qualified_locale.obj
 0001:0003dfda       ___acrt_get_qualified_locale_downlevel 1003efda f   libucrt:getqloc_downlevel.obj
 0001:0003e1e1       ___acrt_fp_strflt_to_string 1003f1e1 f   libucrt:_fptostr.obj
 0001:0003e29d       ??0scoped_fp_state_reset@?A0x48fbfdd4@@QAE@XZ 1003f29d f i libucrt:cfout.obj
 0001:0003e2c7       ___acrt_fltout             1003f2c7 f   libucrt:cfout.obj
 0001:0003f6e4       __isatty                   100406e4 f   libucrt:isatty.obj
 0001:0003f73a       ___acrt_lowio_create_handle_array 1004073a f   libucrt:osfinfo.obj
 0001:0003f7b4       ___acrt_lowio_destroy_handle_array 100407b4 f   libucrt:osfinfo.obj
 0001:0003f7e9       ___acrt_lowio_ensure_fh_exists 100407e9 f   libucrt:osfinfo.obj
 0001:0003f881       ___acrt_lowio_lock_fh      10040881 f   libucrt:osfinfo.obj
 0001:0003f8a4       ___acrt_lowio_set_os_handle 100408a4 f   libucrt:osfinfo.obj
 0001:0003f938       ___acrt_lowio_unlock_fh    10040938 f   libucrt:osfinfo.obj
 0001:0003f95b       __alloc_osfhnd             1004095b f   libucrt:osfinfo.obj
 0001:0003fa6d       __free_osfhnd              10040a6d f   libucrt:osfinfo.obj
 0001:0003fafe       __get_osfhandle            10040afe f   libucrt:osfinfo.obj
 0001:0003fc24       ___acrt_DownlevelLCIDToLocaleName 10040c24 f   libucrt:lcidtoname_downlevel.obj
 0001:0003fcce       ___acrt_DownlevelLocaleNameToLCID 10040cce f   libucrt:lcidtoname_downlevel.obj
 0001:0003fcfa       __wcsnicmp                 10040cfa f   libucrt:wcsnicmp.obj
 0001:0003fdb2       __wcsnicmp_l               10040db2 f   libucrt:wcsnicmp.obj
 0001:0003feb3       __strnicmp                 10040eb3 f   libucrt:strnicmp.obj
 0001:0003ff1f       __strnicmp_l               10040f1f f   libucrt:strnicmp.obj
 0001:000405b0       __sopen_nolock             100415b0 f   libucrt:open.obj
 0001:00040601       __sopen_s                  10041601 f   libucrt:open.obj
 0001:00040621       __wsopen_nolock            10041621 f   libucrt:open.obj
 0001:0004094a       __putwch_nolock            1004194a f   libucrt:putwch.obj
 0001:00040a40       _strncpy_s                 10041a40 f   libucrt:strncpy_s.obj
 0001:00040cee       __getfpcontrolword         10041cee f   libucrt:_fenvutils.obj
 0001:00040d31       __getfpstatusword          10041d31 f   libucrt:_fenvutils.obj
 0001:00040dd9       __setfpcontrolword         10041dd9 f   libucrt:_fenvutils.obj
 0001:00040e59       __setfpstatusword          10041e59 f   libucrt:_fenvutils.obj
 0001:00040ed9       ___libm_error_support      10041ed9 f   libucrt:libm_error.obj
 0001:000410f1       __87except                 100420f1 f   libucrt:87except.obj
 0001:000411fc       __frnd                     100421fc f   libucrt:frnd.obj
 0001:00041212       __towlower_l               10042212 f   libucrt:towlower.obj
 0001:000413c0       _qsort                     100423c0 f   libucrt:qsort.obj
 0001:00041760       _strpbrk                   10042760 f   libucrt:strpbrk.obj
 0001:000417a0       __mbsdec                   100427a0 f   libucrt:mbsdec.obj
 0001:000417b7       __mbsdec_l                 100427b7 f   libucrt:mbsdec.obj
 0001:00041853       __msize                    10042853 f   libucrt:msize.obj
 0001:00041886       _fegetenv                  10042886 f   libucrt:fegetenv.obj
 0001:000418a3       _fesetenv                  100428a3 f   libucrt:fesetenv.obj
 0001:000418ec       _feholdexcept              100428ec f   libucrt:feholdexcept.obj
 0001:00041940       _log10                     10042940 f   libucrt:log10.obj
 0001:00041980       __CIlog10                  10042980 f   libucrt:log10.obj
 0001:000419bb       __CIlog10_default          100429bb f   libucrt:log10.obj
 0001:000419cf       __log10_default            100429cf     libucrt:log10.obj
 0001:00041a90       _ceil                      10042a90 f   libucrt:ceil_pentium4.obj
 0001:00041ad0       __ceil_pentium4            10042ad0 f   libucrt:ceil_pentium4.obj
 0001:00041bb0       ___ascii_strnicmp          10042bb0 f   libucrt:_strnicm.obj
 0001:00041c11       __get_fmode                10042c11 f   libucrt:setmode.obj
 0001:00041c3d       __setmode_nolock           10042c3d f   libucrt:setmode.obj
 0001:00041d0e       ___acrt_copy_path_to_wide_string 10042d0e f   libucrt:string_utilities.obj
 0001:00041dd5       __chsize_nolock            10042dd5 f   libucrt:chsize.obj
 0001:00041f66       ___dcrt_lowio_initialize_console_output 10042f66 f   libucrt:initcon.obj
 0001:00041f85       ___dcrt_terminate_console_output 10042f85 f   libucrt:initcon.obj
 0001:00041f9c       ___acrt_LCMapStringW       10042f9c f   libucrt:lcmapstringw.obj
 0001:00041fda       __clearfp                  10042fda f   libucrt:ieee87.obj
 0001:000420c0       __CIlog10_pentium4         100430c0 f   libucrt:log10_pentium4.obj
 0001:000420d8       __log10_pentium4           100430d8     libucrt:log10_pentium4.obj
 0001:00042350       __ceil_default             10043350 f   libucrt:ceil.obj
 0001:0004240a       _IsProcessorFeaturePresent@4 1004340a f   kernel32:KERNEL32.dll
 0001:00042410       _RtlUnwind@16              10043410 f   kernel32:KERNEL32.dll
 0001:00042420       __FindPESection            10043420 f   LIBCMT:pesect.obj
 0001:00042470       __IsNonwritableInCurrentImage 10043470 f   LIBCMT:pesect.obj
 0001:00042530       __ValidateImageBase        10043530 f   LIBCMT:pesect.obj
 0001:00042570       __aulldvrm                 10043570 f   LIBCMT:ulldvrm.obj
 0001:00042610       __alldiv                   10043610 f   LIBCMT:lldiv.obj
 0001:000426c0       __alldvrm                  100436c0 f   LIBCMT:lldvrm.obj
 0001:000427a0       __allshl                   100437a0 f   LIBCMT:llshl.obj
 0001:000427c0       __aullshr                  100437c0 f   LIBCMT:ullshr.obj
 0001:000427e0       __SEH_prolog4_GS           100437e0 f   LIBCMT:_sehprolg4gs_.obj
 0001:00042829       __SEH_epilog4_GS           10043829 f   LIBCMT:_sehprolg4gs_.obj
 0001:00042840       __ftol2_sse                10043840 f   LIBCMT:_ftol2_.obj
 0001:00042849       __ftol2_pentium4           10043849 f   LIBCMT:_ftol2_.obj
 0001:0004285c       __ftol2_sse_excpt          1004385c f   LIBCMT:_ftol2_.obj
 0001:00042880       __ftol2                    10043880 f   LIBCMT:_ftol2_.obj
 0001:00042900       _strrchr                   10043900 f   libvcruntime:strrchr.obj
 0001:00042a37       _wcschr                    10043a37 f   libvcruntime:wcschr.obj
 0001:00042dd0       ??__F_Static@?1???$_Immortalize@V_Iostream_error_category@std@@@std@@YAAAV_Iostream_error_category@0@XZ@YAXXZ 10043dd0 f i hunspell:strmgr.obj
 0002:00000000       __imp__HeapSize@12         10044000     kernel32:KERNEL32.dll
 0002:00000004       __imp__CreateFileW@28      10044004     kernel32:KERNEL32.dll
 0002:00000008       __imp__SetStdHandle@8      10044008     kernel32:KERNEL32.dll
 0002:0000000c       __imp__FreeEnvironmentStringsW@4 1004400c     kernel32:KERNEL32.dll
 0002:00000010       __imp__GetEnvironmentStringsW@0 10044010     kernel32:KERNEL32.dll
 0002:00000014       __imp__GetCommandLineW@0   10044014     kernel32:KERNEL32.dll
 0002:00000018       __imp__GetCommandLineA@0   10044018     kernel32:KERNEL32.dll
 0002:0000001c       __imp__GetOEMCP@0          1004401c     kernel32:KERNEL32.dll
 0002:00000020       __imp__IsValidCodePage@4   10044020     kernel32:KERNEL32.dll
 0002:00000024       __imp__FindNextFileA@8     10044024     kernel32:KERNEL32.dll
 0002:00000028       __imp__FindFirstFileExA@24 10044028     kernel32:KERNEL32.dll
 0002:0000002c       __imp__FindClose@4         1004402c     kernel32:KERNEL32.dll
 0002:00000030       __imp__GetProcessHeap@0    10044030     kernel32:KERNEL32.dll
 0002:00000034       __imp__SetFilePointerEx@20 10044034     kernel32:KERNEL32.dll
 0002:00000038       __imp__GetConsoleCP@0      10044038     kernel32:KERNEL32.dll
 0002:0000003c       __imp__FlushFileBuffers@4  1004403c     kernel32:KERNEL32.dll
 0002:00000040       __imp__ReadConsoleW@20     10044040     kernel32:KERNEL32.dll
 0002:00000044       __imp__GetConsoleMode@8    10044044     kernel32:KERNEL32.dll
 0002:00000048       __imp__ReadFile@20         10044048     kernel32:KERNEL32.dll
 0002:0000004c       __imp__EnumSystemLocalesW@8 1004404c     kernel32:KERNEL32.dll
 0002:00000050       __imp__GetUserDefaultLCID@0 10044050     kernel32:KERNEL32.dll
 0002:00000054       __imp__IsValidLocale@8     10044054     kernel32:KERNEL32.dll
 0002:00000058       __imp__GetACP@0            10044058     kernel32:KERNEL32.dll
 0002:0000005c       __imp__CreateThread@24     1004405c     kernel32:KERNEL32.dll
 0002:00000060       __imp__OutputDebugStringW@4 10044060     kernel32:KERNEL32.dll
 0002:00000064       __imp__WriteFile@20        10044064     kernel32:KERNEL32.dll
 0002:00000068       __imp__ExitProcess@4       10044068     kernel32:KERNEL32.dll
 0002:0000006c       __imp__HeapReAlloc@16      1004406c     kernel32:KERNEL32.dll
 0002:00000070       __imp__HeapFree@12         10044070     kernel32:KERNEL32.dll
 0002:00000074       __imp__HeapAlloc@12        10044074     kernel32:KERNEL32.dll
 0002:00000078       __imp__QueryPerformanceFrequency@4 10044078     kernel32:KERNEL32.dll
 0002:0000007c       __imp__WriteConsoleW@20    1004407c     kernel32:KERNEL32.dll
 0002:00000080       __imp__GetModuleHandleExW@12 10044080     kernel32:KERNEL32.dll
 0002:00000084       __imp__GetModuleFileNameW@12 10044084     kernel32:KERNEL32.dll
 0002:00000088       __imp__GetModuleFileNameA@12 10044088     kernel32:KERNEL32.dll
 0002:0000008c       __imp__GetFileType@4       1004408c     kernel32:KERNEL32.dll
 0002:00000090       __imp__GetStdHandle@4      10044090     kernel32:KERNEL32.dll
 0002:00000094       __imp__InterlockedFlushSList@4 10044094     kernel32:KERNEL32.dll
 0002:00000098       __imp__LoadLibraryExW@12   10044098     kernel32:KERNEL32.dll
 0002:0000009c       __imp__FreeLibrary@4       1004409c     kernel32:KERNEL32.dll
 0002:000000a0       __imp__GetLastError@0      100440a0     kernel32:KERNEL32.dll
 0002:000000a4       __imp__RtlUnwind@16        100440a4     kernel32:KERNEL32.dll
 0002:000000a8       __imp__RaiseException@16   100440a8     kernel32:KERNEL32.dll
 0002:000000ac       __imp__InitializeSListHead@4 100440ac     kernel32:KERNEL32.dll
 0002:000000b0       __imp__GetCurrentThreadId@0 100440b0     kernel32:KERNEL32.dll
 0002:000000b4       __imp__GetCurrentProcessId@0 100440b4     kernel32:KERNEL32.dll
 0002:000000b8       __imp__QueryPerformanceCounter@4 100440b8     kernel32:KERNEL32.dll
 0002:000000bc       __imp__GetStartupInfoW@4   100440bc     kernel32:KERNEL32.dll
 0002:000000c0       __imp__IsDebuggerPresent@0 100440c0     kernel32:KERNEL32.dll
 0002:000000c4       __imp__WideCharToMultiByte@32 100440c4     kernel32:KERNEL32.dll
 0002:000000c8       __imp__EncodePointer@4     100440c8     kernel32:KERNEL32.dll
 0002:000000cc       __imp__DecodePointer@4     100440cc     kernel32:KERNEL32.dll
 0002:000000d0       __imp__EnterCriticalSection@4 100440d0     kernel32:KERNEL32.dll
 0002:000000d4       __imp__LeaveCriticalSection@4 100440d4     kernel32:KERNEL32.dll
 0002:000000d8       __imp__DeleteCriticalSection@4 100440d8     kernel32:KERNEL32.dll
 0002:000000dc       __imp__MultiByteToWideChar@24 100440dc     kernel32:KERNEL32.dll
 0002:000000e0       __imp__SetLastError@4      100440e0     kernel32:KERNEL32.dll
 0002:000000e4       __imp__InitializeCriticalSectionAndSpinCount@8 100440e4     kernel32:KERNEL32.dll
 0002:000000e8       __imp__CreateEventW@16     100440e8     kernel32:KERNEL32.dll
 0002:000000ec       __imp__TlsAlloc@0          100440ec     kernel32:KERNEL32.dll
 0002:000000f0       __imp__TlsGetValue@4       100440f0     kernel32:KERNEL32.dll
 0002:000000f4       __imp__TlsSetValue@8       100440f4     kernel32:KERNEL32.dll
 0002:000000f8       __imp__TlsFree@4           100440f8     kernel32:KERNEL32.dll
 0002:000000fc       __imp__GetSystemTimeAsFileTime@4 100440fc     kernel32:KERNEL32.dll
 0002:00000100       __imp__GetModuleHandleW@4  10044100     kernel32:KERNEL32.dll
 0002:00000104       __imp__GetProcAddress@8    10044104     kernel32:KERNEL32.dll
 0002:00000108       __imp__LCMapStringW@24     10044108     kernel32:KERNEL32.dll
 0002:0000010c       __imp__GetLocaleInfoW@16   1004410c     kernel32:KERNEL32.dll
 0002:00000110       __imp__GetStringTypeW@16   10044110     kernel32:KERNEL32.dll
 0002:00000114       __imp__GetCPInfo@8         10044114     kernel32:KERNEL32.dll
 0002:00000118       __imp__UnhandledExceptionFilter@4 10044118     kernel32:KERNEL32.dll
 0002:0000011c       __imp__SetUnhandledExceptionFilter@4 1004411c     kernel32:KERNEL32.dll
 0002:00000120       __imp__GetCurrentProcess@0 10044120     kernel32:KERNEL32.dll
 0002:00000124       __imp__TerminateProcess@8  10044124     kernel32:KERNEL32.dll
 0002:00000128       __imp__IsProcessorFeaturePresent@4 10044128     kernel32:KERNEL32.dll
 0002:0000012c       __imp__CloseHandle@4       1004412c     kernel32:KERNEL32.dll
 0002:00000130       __imp__SetEvent@4          10044130     kernel32:KERNEL32.dll
 0002:00000134       __imp__ResetEvent@4        10044134     kernel32:KERNEL32.dll
 0002:00000138       __imp__WaitForSingleObjectEx@12 10044138     kernel32:KERNEL32.dll
 0002:0000013c       __imp__SetEndOfFile@4      1004413c     kernel32:KERNEL32.dll
 0002:00000140       \177KERNEL32_NULL_THUNK_DATA 10044140     kernel32:KERNEL32.dll
 0002:00000144       __imp_?ToString@Value@v8@@QBE?AV?$Local@VString@v8@@@2@XZ 10044144     iojs:node.dll
 0002:00000148       __imp__uv_default_loop     10044148     iojs:node.dll
 0002:0000014c       __imp__uv_rwlock_destroy   1004414c     iojs:node.dll
 0002:00000150       __imp__uv_rwlock_rdunlock  10044150     iojs:node.dll
 0002:00000154       __imp__uv_rwlock_wrunlock  10044154     iojs:node.dll
 0002:00000158       __imp__uv_rwlock_init      10044158     iojs:node.dll
 0002:0000015c       __imp__uv_rwlock_rdlock    1004415c     iojs:node.dll
 0002:00000160       __imp__uv_rwlock_wrlock    10044160     iojs:node.dll
 0002:00000164       __imp_?Length@Buffer@node@@YAIV?$Local@VValue@v8@@@v8@@@Z 10044164     iojs:node.dll
 0002:00000168       __imp_?Data@Buffer@node@@YAPADV?$Local@VObject@v8@@@v8@@@Z 10044168     iojs:node.dll
 0002:0000016c       __imp_?HasInstance@Buffer@node@@YA_NV?$Local@VValue@v8@@@v8@@@Z 1004416c     iojs:node.dll
 0002:00000170       __imp__node_module_register 10044170     iojs:node.dll
 0002:00000174       __imp_?SetInternalFieldCount@ObjectTemplate@v8@@QAEXH@Z 10044174     iojs:node.dll
 0002:00000178       __imp_?NewInstance@Function@v8@@QBE?AV?$Local@VObject@v8@@@2@HQAV?$Local@VValue@v8@@@2@@Z 10044178     iojs:node.dll
 0002:0000017c       __imp_?Call@Function@v8@@QAE?AV?$Local@VValue@v8@@@2@V32@HQAV32@@Z 1004417c     iojs:node.dll
 0002:00000180       __imp_?Set@Object@v8@@QAE_NIV?$Local@VValue@v8@@@2@@Z 10044180     iojs:node.dll
 0002:00000184       __imp_?Set@Object@v8@@QAE_NV?$Local@VValue@v8@@@2@0@Z 10044184     iojs:node.dll
 0002:00000188       __imp_?InternalFieldCount@Object@v8@@QAEHXZ 10044188     iojs:node.dll
 0002:0000018c       __imp_?SetAlignedPointerInInternalField@Object@v8@@QAEXHPAX@Z 1004418c     iojs:node.dll
 0002:00000190       __imp_?SlowGetAlignedPointerFromInternalField@Object@v8@@AAEPAXH@Z 10044190     iojs:node.dll
 0002:00000194       __imp_?NewFromUtf8@String@v8@@SA?AV?$Local@VString@v8@@@2@PAVIsolate@2@PBDW4NewStringType@12@H@Z 10044194     iojs:node.dll
 0002:00000198       __imp_??0Utf8Value@String@v8@@QAE@V?$Local@VValue@v8@@@2@@Z 10044198     iojs:node.dll
 0002:0000019c       __imp_??1Utf8Value@String@v8@@QAE@XZ 1004419c     iojs:node.dll
 0002:000001a0       __imp_?IsFunction@Value@v8@@QBE_NXZ 100441a0     iojs:node.dll
 0002:000001a4       __imp_?IsExternal@Value@v8@@QBE_NXZ 100441a4     iojs:node.dll
 0002:000001a8       __imp_?GlobalizeReference@V8@v8@@CAPAPAVObject@internal@2@PAVIsolate@42@PAPAV342@@Z 100441a8     iojs:node.dll
 0002:000001ac       __imp_?DisposeGlobal@V8@v8@@CAXPAPAVObject@internal@2@@Z 100441ac     iojs:node.dll
 0002:000001b0       __imp_?MakeWeak@V8@v8@@CAXPAPAVObject@internal@2@PAXP6AXABV?$WeakCallbackInfo@X@2@@ZW4WeakCallbackType@2@@Z 100441b0     iojs:node.dll
 0002:000001b4       __imp_?ClearWeak@V8@v8@@CAPAXPAPAVObject@internal@2@@Z 100441b4     iojs:node.dll
 0002:000001b8       __imp_?New@FunctionTemplate@v8@@SA?AV?$Local@VFunctionTemplate@v8@@@2@PAVIsolate@2@P6AXABV?$FunctionCallbackInfo@VValue@v8@@@2@@ZV?$Local@VValue@v8@@@2@V?$Local@VSignature@v8@@@2@HW4ConstructorBehavior@2@@Z 100441b8     iojs:node.dll
 0002:000001bc       __imp_?GetFunction@FunctionTemplate@v8@@QAE?AV?$Local@VFunction@v8@@@2@XZ 100441bc     iojs:node.dll
 0002:000001c0       __imp_?InstanceTemplate@FunctionTemplate@v8@@QAE?AV?$Local@VObjectTemplate@v8@@@2@XZ 100441c0     iojs:node.dll
 0002:000001c4       __imp_?PrototypeTemplate@FunctionTemplate@v8@@QAE?AV?$Local@VObjectTemplate@v8@@@2@XZ 100441c4     iojs:node.dll
 0002:000001c8       __imp_?SetClassName@FunctionTemplate@v8@@QAEXV?$Local@VString@v8@@@2@@Z 100441c8     iojs:node.dll
 0002:000001cc       __imp_?New@Array@v8@@SA?AV?$Local@VArray@v8@@@2@PAVIsolate@2@H@Z 100441cc     iojs:node.dll
 0002:000001d0       __imp_?TypeError@Exception@v8@@SA?AV?$Local@VValue@v8@@@2@V?$Local@VString@v8@@@2@@Z 100441d0     iojs:node.dll
 0002:000001d4       __imp_?Error@Exception@v8@@SA?AV?$Local@VValue@v8@@@2@V?$Local@VString@v8@@@2@@Z 100441d4     iojs:node.dll
 0002:000001d8       __imp_?Set@Template@v8@@QAEXV?$Local@VName@v8@@@2@V?$Local@VData@v8@@@2@W4PropertyAttribute@2@@Z 100441d8     iojs:node.dll
 0002:000001dc       __imp_??0HandleScope@v8@@QAE@PAVIsolate@1@@Z 100441dc     iojs:node.dll
 0002:000001e0       __imp_??1HandleScope@v8@@QAE@XZ 100441e0     iojs:node.dll
 0002:000001e4       __imp_?CreateHandle@HandleScope@v8@@KAPAPAVObject@internal@2@PAVIsolate@42@PAV342@@Z 100441e4     iojs:node.dll
 0002:000001e8       __imp_?GetCurrent@Isolate@v8@@SAPAV12@XZ 100441e8     iojs:node.dll
 0002:000001ec       __imp_?GetCurrentContext@Isolate@v8@@QAE?AV?$Local@VContext@v8@@@2@XZ 100441ec     iojs:node.dll
 0002:000001f0       __imp_?ThrowException@Isolate@v8@@QAE?AV?$Local@VValue@v8@@@2@V32@@Z 100441f0     iojs:node.dll
 0002:000001f4       __imp_?New@Signature@v8@@SA?AV?$Local@VSignature@v8@@@2@PAVIsolate@2@V?$Local@VFunctionTemplate@v8@@@2@@Z 100441f4     iojs:node.dll
 0002:000001f8       __imp_?New@External@v8@@SA?AV?$Local@VExternal@v8@@@2@PAVIsolate@2@PAX@Z 100441f8     iojs:node.dll
 0002:000001fc       __imp_?Value@External@v8@@QBEPAXXZ 100441fc     iojs:node.dll
 0002:00000200       __imp_?Global@Context@v8@@QAE?AV?$Local@VObject@v8@@@2@XZ 10044200     iojs:node.dll
 0002:00000204       __imp__uv_queue_work       10044204     iojs:node.dll
 0002:00000208       \177node_NULL_THUNK_DATA   10044208     iojs:node.dll
 0002:0000020c       ___guard_check_icall_fptr  1004420c     LIBCMT:guard_support.obj
 0002:00000210       ___xc_a                    10044210     LIBCMT:initializers.obj
 0002:0000023c       __register_nodehun_        1004423c     nodehun.obj
 0002:00000240       ___xc_z                    10044240     LIBCMT:initializers.obj
 0002:00000244       ___xi_a                    10044244     LIBCMT:initializers.obj
 0002:00000250       ___acrt_stdio_initializer  10044250     libucrt:stdio_initializer.obj
 0002:00000254       ___acrt_clock_initializer  10044254     libucrt:clock_initializer.obj
 0002:00000258       ___acrt_tran_sse2_initializer 10044258     libucrt:sse2_initializer.obj
 0002:0000025c       ___acrt_timeset_initializer 1004425c     libucrt:timeset_initializer.obj
 0002:00000260       ___acrt_multibyte_initializer 10044260     libucrt:multibyte_initializer.obj
 0002:00000264       ___xi_z                    10044264     LIBCMT:initializers.obj
 0002:00000268       ___xl_a                    10044268     LIBCMT:tlssup.obj
 0002:0000026c       ___xl_z                    1004426c     LIBCMT:tlssup.obj
 0002:00000270       ___xp_a                    10044270     LIBCMT:initializers.obj
 0002:00000274       ___acrt_locale_terminator  10044274     libucrt:locale_initializer.obj
 0002:00000278       ___dcrt_console_output_terminator 10044278     libucrt:console_output_initializer.obj
 0002:0000027c       ___acrt_stdio_terminator   1004427c     libucrt:stdio_initializer.obj
 0002:00000280       ___xp_z                    10044280     LIBCMT:initializers.obj
 0002:00000284       ___xt_a                    10044284     LIBCMT:initializers.obj
 0002:00000288       ___xt_z                    10044288     LIBCMT:initializers.obj
 0002:00000294       ??_7exception@std@@6B@     10044294     libcpmt:xthrow.obj
 0002:0000029c       ??_C@_0BC@EOODALEL@Unknown?5exception?$AA@ 1004429c     libcpmt:xthrow.obj
 0002:000002b4       ??_7bad_alloc@std@@6B@     100442b4     libcpmt:xthrow.obj
 0002:000002bc       ??_C@_0P@GHFPNOJB@bad?5allocation?$AA@ 100442bc     libcpmt:xthrow.obj
 0002:000002d0       ??_7logic_error@std@@6B@   100442d0     libcpmt:xthrow.obj
 0002:000002dc       ??_7length_error@std@@6B@  100442dc     libcpmt:xthrow.obj
 0002:000002e8       ??_7out_of_range@std@@6B@  100442e8     libcpmt:xthrow.obj
 0002:000002f4       ??_7runtime_error@std@@6B@ 100442f4     libcpmt:xthrow.obj
 0002:00000300       ??_7bad_cast@std@@6B@      10044300     libcpmt:cout.obj
 0002:00000308       ??_C@_08EPJLHIJG@bad?5cast?$AA@ 10044308     libcpmt:cout.obj
 0002:00000314       ??_C@_0BA@ELKIONDK@bad?5locale?5name?$AA@ 10044314     libcpmt:cout.obj
 0002:00000328       ??_7_Facet_base@std@@6B@   10044328     libcpmt:cout.obj
 0002:00000338       ??_7?$ctype@D@std@@6B@     10044338     libcpmt:cout.obj
 0002:00000368       ??_7error_category@std@@6B@ 10044368     libcpmt:cout.obj
 0002:00000384       ??_7_System_error@std@@6B@ 10044384     libcpmt:cout.obj
 0002:00000390       ??_7_Iostream_error_category@std@@6B@ 10044390     libcpmt:cout.obj
 0002:000003ac       ??_7failure@ios_base@std@@6B@ 100443ac     libcpmt:cout.obj
 0002:000003b8       ??_7ios_base@std@@6B@      100443b8     libcpmt:cout.obj
 0002:000003c0       ??_7?$basic_streambuf@DU?$char_traits@D@std@@@std@@6B@ 100443c0     libcpmt:cout.obj
 0002:00000400       ??_7?$basic_filebuf@DU?$char_traits@D@std@@@std@@6B@ 10044400     libcpmt:cout.obj
 0002:00000440       ??_7?$basic_ios@DU?$char_traits@D@std@@@std@@6B@ 10044440     libcpmt:cout.obj
 0002:00000448       ??_7?$basic_ostream@DU?$char_traits@D@std@@@std@@6B@ 10044448     libcpmt:cout.obj
 0002:0000044c       ??_8?$basic_ostream@DU?$char_traits@D@std@@@std@@7B@ 1004444c     libcpmt:cout.obj
 0002:00000458       ??_7?$codecvt@DDU_Mbstatet@@@std@@6B@ 10044458     libcpmt:cout.obj
 0002:00000480       ??_C@_0BD@JPHBMONG@identifier?5removed?$AA@ 10044480     libcpmt:syserror.obj
 0002:00000494       ??_C@_0BG@CDNPAGJK@illegal?5byte?5sequence?$AA@ 10044494     libcpmt:syserror.obj
 0002:000004ac       ??_C@_0CD@BNPLBMNA@inappropriate?5io?5control?5operati@ 100444ac     libcpmt:syserror.obj
 0002:000004d0       ??_C@_0M@EGEKIIMP@interrupted?$AA@ 100444d0     libcpmt:syserror.obj
 0002:000004dc       ??_C@_0BB@FCMFBGOM@invalid?5argument?$AA@ 100444dc     libcpmt:syserror.obj
 0002:000004f0       ??_C@_0N@OHAFKDEK@invalid?5seek?$AA@ 100444f0     libcpmt:syserror.obj
 0002:00000500       ??_C@_08GLNPIFBN@io?5error?$AA@ 10044500     libcpmt:syserror.obj
 0002:0000050c       ??_C@_0P@FLLDBIDK@is?5a?5directory?$AA@ 1004450c     libcpmt:syserror.obj
 0002:0000051c       ??_C@_0N@IFLPBIOP@message?5size?$AA@ 1004451c     libcpmt:syserror.obj
 0002:0000052c       ??_C@_0N@KIIEAAIO@network?5down?$AA@ 1004452c     libcpmt:syserror.obj
 0002:0000053c       ??_C@_0O@FNPDBHEE@network?5reset?$AA@ 1004453c     libcpmt:syserror.obj
 0002:0000054c       ??_C@_0BE@IFNCKGE@network?5unreachable?$AA@ 1004454c     libcpmt:syserror.obj
 0002:00000560       ??_C@_0BA@PFFCAOFK@no?5buffer?5space?$AA@ 10044560     libcpmt:syserror.obj
 0002:00000570       ??_C@_0BB@IEPBLJHK@no?5child?5process?$AA@ 10044570     libcpmt:syserror.obj
 0002:00000584       ??_C@_07PLECNNKG@no?5link?$AA@ 10044584     libcpmt:syserror.obj
 0002:0000058c       ??_C@_0BC@NJECKMKE@no?5lock?5available?$AA@ 1004458c     libcpmt:syserror.obj
 0002:000005a0       ??_C@_0BF@PBGGPKKE@no?5message?5available?$AA@ 100445a0     libcpmt:syserror.obj
 0002:000005b8       ??_C@_0L@EDOLMPAK@no?5message?$AA@ 100445b8     libcpmt:syserror.obj
 0002:000005c4       ??_C@_0BD@EAMBFIDF@no?5protocol?5option?$AA@ 100445c4     libcpmt:syserror.obj
 0002:000005d8       ??_C@_0BD@IJDJKDEA@no?5space?5on?5device?$AA@ 100445d8     libcpmt:syserror.obj
 0002:000005ec       ??_C@_0BE@MKFDAFMP@no?5stream?5resources?$AA@ 100445ec     libcpmt:syserror.obj
 0002:00000600       ??_C@_0BK@IMCPHCBI@no?5such?5device?5or?5address?$AA@ 10044600     libcpmt:syserror.obj
 0002:0000061c       ??_C@_0P@FDINDDOK@no?5such?5device?$AA@ 1004461c     libcpmt:syserror.obj
 0002:0000062c       ??_C@_0BK@NDOCBPGE@no?5such?5file?5or?5directory?$AA@ 1004462c     libcpmt:syserror.obj
 0002:00000648       ??_C@_0BA@ENLPPKBN@no?5such?5process?$AA@ 10044648     libcpmt:syserror.obj
 0002:00000658       ??_C@_0BA@DOCPFFJG@not?5a?5directory?$AA@ 10044658     libcpmt:syserror.obj
 0002:00000668       ??_C@_0N@POEIPGGF@not?5a?5socket?$AA@ 10044668     libcpmt:syserror.obj
 0002:00000678       ??_C@_0N@LGAPMMPI@not?5a?5stream?$AA@ 10044678     libcpmt:syserror.obj
 0002:00000688       ??_C@_0O@GLMIBBEG@not?5connected?$AA@ 10044688     libcpmt:syserror.obj
 0002:00000698       ??_C@_0BC@ENOOLCNF@not?5enough?5memory?$AA@ 10044698     libcpmt:syserror.obj
 0002:000006ac       ??_C@_0O@NHEDABJP@not?5supported?$AA@ 100446ac     libcpmt:syserror.obj
 0002:000006bc       ??_C@_0BD@MOLBPMEA@operation?5canceled?$AA@ 100446bc     libcpmt:syserror.obj
 0002:000006d0       ??_C@_0BG@KDKHOPCO@operation?5in?5progress?$AA@ 100446d0     libcpmt:syserror.obj
 0002:000006e8       ??_C@_0BI@OHIEJAAB@operation?5not?5permitted?$AA@ 100446e8     libcpmt:syserror.obj
 0002:00000700       ??_C@_0BI@LNEGIFLN@operation?5not?5supported?$AA@ 10044700     libcpmt:syserror.obj
 0002:00000718       ??_C@_0BG@OEMDKMEE@operation?5would?5block?$AA@ 10044718     libcpmt:syserror.obj
 0002:00000730       ??_C@_0L@BLPOFLNJ@owner?5dead?$AA@ 10044730     libcpmt:syserror.obj
 0002:0000073c       ??_C@_0BC@CIJDGCDI@permission?5denied?$AA@ 1004473c     libcpmt:syserror.obj
 0002:00000750       ??_C@_0P@FNPOCJBE@protocol?5error?$AA@ 10044750     libcpmt:syserror.obj
 0002:00000760       ??_C@_0BH@JPPPLHJB@protocol?5not?5supported?$AA@ 10044760     libcpmt:syserror.obj
 0002:00000778       ??_C@_0BG@EICBIHDP@read?5only?5file?5system?$AA@ 10044778     libcpmt:syserror.obj
 0002:00000790       ??_C@_0BO@BJBOMOEJ@resource?5deadlock?5would?5occur?$AA@ 10044790     libcpmt:syserror.obj
 0002:000007b0       ??_C@_0BP@LKNGHENJ@resource?5unavailable?5try?5again?$AA@ 100447b0     libcpmt:syserror.obj
 0002:000007d0       ??_C@_0BE@GOIPJJHG@result?5out?5of?5range?$AA@ 100447d0     libcpmt:syserror.obj
 0002:000007e4       ??_C@_0BG@MPLKFPAE@state?5not?5recoverable?$AA@ 100447e4     libcpmt:syserror.obj
 0002:000007fc       ??_C@_0P@DIIFGFCG@stream?5timeout?$AA@ 100447fc     libcpmt:syserror.obj
 0002:0000080c       ??_C@_0P@IPFDMIFL@text?5file?5busy?$AA@ 1004480c     libcpmt:syserror.obj
 0002:0000081c       ??_C@_09KJPPMAOI@timed?5out?$AA@ 1004481c     libcpmt:syserror.obj
 0002:00000828       ??_C@_0BO@HACHBEKI@too?5many?5files?5open?5in?5system?$AA@ 10044828     libcpmt:syserror.obj
 0002:00000848       ??_C@_0BE@GHAFMPAH@too?5many?5files?5open?$AA@ 10044848     libcpmt:syserror.obj
 0002:0000085c       ??_C@_0P@HCOMKFCC@too?5many?5links?$AA@ 1004485c     libcpmt:syserror.obj
 0002:0000086c       ??_C@_0BO@EFGOJEF@too?5many?5symbolic?5link?5levels?$AA@ 1004486c     libcpmt:syserror.obj
 0002:0000088c       ??_C@_0BA@KGKGOOJA@value?5too?5large?$AA@ 1004488c     libcpmt:syserror.obj
 0002:0000089c       ??_C@_0BE@MIEJDDNH@wrong?5protocol?5type?$AA@ 1004489c     libcpmt:syserror.obj
 0002:00000d70       ??_C@_0BN@LKKBCCDB@address?5family?5not?5supported?$AA@ 10044d70     libcpmt:syserror.obj
 0002:00000d90       ??_C@_0P@LDMLAFHI@address?5in?5use?$AA@ 10044d90     libcpmt:syserror.obj
 0002:00000da0       ??_C@_0BG@DHPCNBJB@address?5not?5available?$AA@ 10044da0     libcpmt:syserror.obj
 0002:00000db8       ??_C@_0BC@DFIBIBIL@already?5connected?$AA@ 10044db8     libcpmt:syserror.obj
 0002:00000dcc       ??_C@_0BH@CAKOHOMI@argument?5list?5too?5long?$AA@ 10044dcc     libcpmt:syserror.obj
 0002:00000de4       ??_C@_0BH@CGIMPKIM@argument?5out?5of?5domain?$AA@ 10044de4     libcpmt:syserror.obj
 0002:00000dfc       ??_C@_0M@KGHGGJGL@bad?5address?$AA@ 10044dfc     libcpmt:syserror.obj
 0002:00000e08       ??_C@_0BE@MPJPGCEO@bad?5file?5descriptor?$AA@ 10044e08     libcpmt:syserror.obj
 0002:00000e1c       ??_C@_0M@PMMIEFCP@bad?5message?$AA@ 10044e1c     libcpmt:syserror.obj
 0002:00000e28       ??_C@_0M@KPHOFDBE@broken?5pipe?$AA@ 10044e28     libcpmt:syserror.obj
 0002:00000e34       ??_C@_0BD@MGNDDEGM@connection?5aborted?$AA@ 10044e34     libcpmt:syserror.obj
 0002:00000e48       ??_C@_0BP@KAIHPOGN@connection?5already?5in?5progress?$AA@ 10044e48     libcpmt:syserror.obj
 0002:00000e68       ??_C@_0BD@PJLIIJEL@connection?5refused?$AA@ 10044e68     libcpmt:syserror.obj
 0002:00000e7c       ??_C@_0BB@IECNJNOI@connection?5reset?$AA@ 10044e7c     libcpmt:syserror.obj
 0002:00000e90       ??_C@_0BC@PPHBOELF@cross?5device?5link?$AA@ 10044e90     libcpmt:syserror.obj
 0002:00000ea4       ??_C@_0BN@KDMIFEIP@destination?5address?5required?$AA@ 10044ea4     libcpmt:syserror.obj
 0002:00000ec4       ??_C@_0BI@NGCEHDD@device?5or?5resource?5busy?$AA@ 10044ec4     libcpmt:syserror.obj
 0002:00000edc       ??_C@_0BE@JIDOCPHM@directory?5not?5empty?$AA@ 10044edc     libcpmt:syserror.obj
 0002:00000ef0       ??_C@_0BI@BNCLIGPB@executable?5format?5error?$AA@ 10044ef0     libcpmt:syserror.obj
 0002:00000f08       ??_C@_0M@MIDIAGJP@file?5exists?$AA@ 10044f08     libcpmt:syserror.obj
 0002:00000f14       ??_C@_0P@DNAJLBJK@file?5too?5large?$AA@ 10044f14     libcpmt:syserror.obj
 0002:00000f24       ??_C@_0BC@EJHOMAAK@filename?5too?5long?$AA@ 10044f24     libcpmt:syserror.obj
 0002:00000f38       ??_C@_0BH@KEFGLDAF@function?5not?5supported?$AA@ 10044f38     libcpmt:syserror.obj
 0002:00000f50       ??_C@_0BB@DHFDFGDM@host?5unreachable?$AA@ 10044f50     libcpmt:syserror.obj
 0002:00000f64       ??_C@_0O@BFJCFAAK@unknown?5error?$AA@ 10044f64     libcpmt:syserror.obj
 0002:00000f78       ??_7_Locimp@locale@std@@6B@ 10044f78     libcpmt:locale0.obj
 0002:00000f84       ??_C@_01NBENCBCI@?$CK?$AA@ 10044f84     libcpmt:locale0.obj
 0002:00000f88       ??_C@_01GFHCPBMG@C?$AA@    10044f88     libcpmt:locale0.obj
 0002:00000f90       ?_BADOFF@std@@3_JB         10044f90     libcpmt:ios.obj
 0002:00000f98       ??_C@_1BK@MGMFAEKH@?$AAk?$AAe?$AAr?$AAn?$AAe?$AAl?$AA3?$AA2?$AA?4?$AAd?$AAl?$AAl?$AA?$AA@ 10044f98     libcpmt:winapisupp.obj
 0002:00000fb4       ??_C@_08KNHFBNJ@FlsAlloc?$AA@ 10044fb4     libcpmt:winapisupp.obj
 0002:00000fc0       ??_C@_07PEJMOBNF@FlsFree?$AA@ 10044fc0     libcpmt:winapisupp.obj
 0002:00000fc8       ??_C@_0M@GDNOONDI@FlsGetValue?$AA@ 10044fc8     libcpmt:winapisupp.obj
 0002:00000fd4       ??_C@_0M@JCPCPOEF@FlsSetValue?$AA@ 10044fd4     libcpmt:winapisupp.obj
 0002:00000fe0       ??_C@_0BM@HCFOFFN@InitializeCriticalSectionEx?$AA@ 10044fe0     libcpmt:winapisupp.obj
 0002:00000ffc       ??_C@_0BE@GPLMMCMH@InitOnceExecuteOnce?$AA@ 10044ffc     libcpmt:winapisupp.obj
 0002:00001010       ??_C@_0P@DLHPPCNH@CreateEventExW?$AA@ 10045010     libcpmt:winapisupp.obj
 0002:00001020       ??_C@_0BB@MEFPJLHN@CreateSemaphoreW?$AA@ 10045020     libcpmt:winapisupp.obj
 0002:00001034       ??_C@_0BD@KIEEOEEH@CreateSemaphoreExW?$AA@ 10045034     libcpmt:winapisupp.obj
 0002:00001048       ??_C@_0BG@OGFAJCKC@CreateThreadpoolTimer?$AA@ 10045048     libcpmt:winapisupp.obj
 0002:00001060       ??_C@_0BD@LPLEMMDI@SetThreadpoolTimer?$AA@ 10045060     libcpmt:winapisupp.obj
 0002:00001074       ??_C@_0CA@FMNJENH@WaitForThreadpoolTimerCallbacks?$AA@ 10045074     libcpmt:winapisupp.obj
 0002:00001094       ??_C@_0BF@DCFCCNOC@CloseThreadpoolTimer?$AA@ 10045094     libcpmt:winapisupp.obj
 0002:000010ac       ??_C@_0BF@FLABGKKM@CreateThreadpoolWait?$AA@ 100450ac     libcpmt:winapisupp.obj
 0002:000010c4       ??_C@_0BC@MGCOHNA@SetThreadpoolWait?$AA@ 100450c4     libcpmt:winapisupp.obj
 0002:000010d8       ??_C@_0BE@OCIOMIMP@CloseThreadpoolWait?$AA@ 100450d8     libcpmt:winapisupp.obj
 0002:000010ec       ??_C@_0BJ@LKGHFHBO@FlushProcessWriteBuffers?$AA@ 100450ec     libcpmt:winapisupp.obj
 0002:00001108       ??_C@_0BP@KALKKPMO@FreeLibraryWhenCallbackReturns?$AA@ 10045108     libcpmt:winapisupp.obj
 0002:00001128       ??_C@_0BK@DFNBACLA@GetCurrentProcessorNumber?$AA@ 10045128     libcpmt:winapisupp.obj
 0002:00001144       ??_C@_0BE@FKKLLFLM@CreateSymbolicLinkW?$AA@ 10045144     libcpmt:winapisupp.obj
 0002:00001158       ??_C@_0BE@JOGNEJCI@GetCurrentPackageId?$AA@ 10045158     libcpmt:winapisupp.obj
 0002:0000116c       ??_C@_0P@CDHHOHKP@GetTickCount64?$AA@ 1004516c     libcpmt:winapisupp.obj
 0002:0000117c       ??_C@_0BN@NEEHBBPO@GetFileInformationByHandleEx?$AA@ 1004517c     libcpmt:winapisupp.obj
 0002:0000119c       ??_C@_0BL@KBBHGKCM@SetFileInformationByHandle?$AA@ 1004519c     libcpmt:winapisupp.obj
 0002:000011b8       ??_C@_0BP@FPNJPEJC@GetSystemTimePreciseAsFileTime?$AA@ 100451b8     libcpmt:winapisupp.obj
 0002:000011d8       ??_C@_0BM@HLJJNPAH@InitializeConditionVariable?$AA@ 100451d8     libcpmt:winapisupp.obj
 0002:000011f4       ??_C@_0BG@BFNILBLN@WakeConditionVariable?$AA@ 100451f4     libcpmt:winapisupp.obj
 0002:0000120c       ??_C@_0BJ@PGPPEPCC@WakeAllConditionVariable?$AA@ 1004520c     libcpmt:winapisupp.obj
 0002:00001228       ??_C@_0BJ@JEBJOJFJ@SleepConditionVariableCS?$AA@ 10045228     libcpmt:winapisupp.obj
 0002:00001244       ??_C@_0BC@MMLHEBPB@InitializeSRWLock?$AA@ 10045244     libcpmt:winapisupp.obj
 0002:00001258       ??_C@_0BI@OMNLIJDB@AcquireSRWLockExclusive?$AA@ 10045258     libcpmt:winapisupp.obj
 0002:00001270       ??_C@_0BL@OGHFEMNA@TryAcquireSRWLockExclusive?$AA@ 10045270     libcpmt:winapisupp.obj
 0002:0000128c       ??_C@_0BI@HMIEPCNJ@ReleaseSRWLockExclusive?$AA@ 1004528c     libcpmt:winapisupp.obj
 0002:000012a4       ??_C@_0BK@LGACAGIC@SleepConditionVariableSRW?$AA@ 100452a4     libcpmt:winapisupp.obj
 0002:000012c0       ??_C@_0BF@GGPHFPJA@CreateThreadpoolWork?$AA@ 100452c0     libcpmt:winapisupp.obj
 0002:000012d8       ??_C@_0BF@NHDAIMMO@SubmitThreadpoolWork?$AA@ 100452d8     libcpmt:winapisupp.obj
 0002:000012f0       ??_C@_0BE@NPHIPNPD@CloseThreadpoolWork?$AA@ 100452f0     libcpmt:winapisupp.obj
 0002:00001304       ??_C@_0BA@IHGNDAEB@CompareStringEx?$AA@ 10045304     libcpmt:winapisupp.obj
 0002:00001314       ??_C@_0BA@ONOKGCMP@GetLocaleInfoEx?$AA@ 10045314     libcpmt:winapisupp.obj
 0002:00001324       ??_C@_0O@KKBNKAPF@LCMapStringEx?$AA@ 10045324     libcpmt:winapisupp.obj
 0002:00002178       ??_C@_15EMKDOKLE@?$AAa?$AAr?$AA?$AA@ 10046178     libcpmt:winapinls.obj
 0002:00002180       ??_C@_15KNPADPLH@?$AAb?$AAg?$AA?$AA@ 10046180     libcpmt:winapinls.obj
 0002:00002188       ??_C@_15EDMHLDMO@?$AAc?$AAa?$AA?$AA@ 10046188     libcpmt:winapinls.obj
 0002:00002190       ??_C@_1O@BPEAJADD@?$AAz?$AAh?$AA?9?$AAC?$AAH?$AAS?$AA?$AA@ 10046190     libcpmt:winapinls.obj
 0002:000021a0       ??_C@_15LJNHCMNK@?$AAc?$AAs?$AA?$AA@ 100461a0     libcpmt:winapinls.obj
 0002:000021a8       ??_C@_15FOMCIDHG@?$AAd?$AAa?$AA?$AA@ 100461a8     libcpmt:winapinls.obj
 0002:000021b0       ??_C@_15NBKABECB@?$AAd?$AAe?$AA?$AA@ 100461b0     libcpmt:winapinls.obj
 0002:000021b8       ??_C@_15GHPEIIAO@?$AAe?$AAl?$AA?$AA@ 100461b8     libcpmt:winapinls.obj
 0002:000021c0       ??_C@_15MNPNEAIF@?$AAe?$AAn?$AA?$AA@ 100461c0     libcpmt:winapinls.obj
 0002:000021c8       ??_C@_15GPIOMPMH@?$AAe?$AAs?$AA?$AA@ 100461c8     libcpmt:winapinls.obj
 0002:000021d0       ??_C@_15NGLOAKJC@?$AAf?$AAi?$AA?$AA@ 100461d0     libcpmt:winapinls.obj
 0002:000021d8       ??_C@_15FBKGNKAM@?$AAf?$AAr?$AA?$AA@ 100461d8     libcpmt:winapinls.obj
 0002:000021e0       ??_C@_15KGGCNEFK@?$AAh?$AAe?$AA?$AA@ 100461e0     libcpmt:winapinls.obj
 0002:000021e8       ??_C@_15PGHLIDMF@?$AAh?$AAu?$AA?$AA@ 100461e8     libcpmt:winapinls.obj
 0002:000021f0       ??_C@_15BIEMAPLM@?$AAi?$AAs?$AA?$AA@ 100461f0     libcpmt:winapinls.obj
 0002:000021f8       ??_C@_15IFJLDHAF@?$AAi?$AAt?$AA?$AA@ 100461f8     libcpmt:winapinls.obj
 0002:00002200       ??_C@_15GEMIOCAG@?$AAj?$AAa?$AA?$AA@ 10046200     libcpmt:winapinls.obj
 0002:00002208       ??_C@_15EPELEGJA@?$AAk?$AAo?$AA?$AA@ 10046208     libcpmt:winapinls.obj
 0002:00002210       ??_C@_15NDDHIMN@?$AAn?$AAl?$AA?$AA@ 10046210     libcpmt:winapinls.obj
 0002:00002218       ??_C@_15BPIGNHCD@?$AAn?$AAo?$AA?$AA@ 10046218     libcpmt:winapinls.obj
 0002:00002220       ??_C@_15DEOPBLCG@?$AAp?$AAl?$AA?$AA@ 10046220     libcpmt:winapinls.obj
 0002:00002228       ??_C@_15KBECGEFG@?$AAp?$AAt?$AA?$AA@ 10046228     libcpmt:winapinls.obj
 0002:00002230       ??_C@_15GLJCBFMD@?$AAr?$AAo?$AA?$AA@ 10046230     libcpmt:winapinls.obj
 0002:00002238       ??_C@_15FEDGKCDI@?$AAr?$AAu?$AA?$AA@ 10046238     libcpmt:winapinls.obj
 0002:00002240       ??_C@_15GLKMLLHM@?$AAh?$AAr?$AA?$AA@ 10046240     libcpmt:winapinls.obj
 0002:00002248       ??_C@_15CPKMFBDB@?$AAs?$AAk?$AA?$AA@ 10046248     libcpmt:winapinls.obj
 0002:00002250       ??_C@_15BAAIOGMK@?$AAs?$AAq?$AA?$AA@ 10046250     libcpmt:winapinls.obj
 0002:00002258       ??_C@_15INNPNOHD@?$AAs?$AAv?$AA?$AA@ 10046258     libcpmt:winapinls.obj
 0002:00002260       ??_C@_15CABMMOGH@?$AAt?$AAh?$AA?$AA@ 10046260     libcpmt:winapinls.obj
 0002:00002268       ??_C@_15BPLIHJJM@?$AAt?$AAr?$AA?$AA@ 10046268     libcpmt:winapinls.obj
 0002:00002270       ??_C@_15NEOEKKDJ@?$AAu?$AAr?$AA?$AA@ 10046270     libcpmt:winapinls.obj
 0002:00002278       ??_C@_15NFICGAJK@?$AAi?$AAd?$AA?$AA@ 10046278     libcpmt:winapinls.obj
 0002:00002280       ??_C@_15PJPFLCCM@?$AAu?$AAk?$AA?$AA@ 10046280     libcpmt:winapinls.obj
 0002:00002288       ??_C@_15HPJPHDM@?$AAb?$AAe?$AA?$AA@ 10046288     libcpmt:winapinls.obj
 0002:00002290       ??_C@_15LCHLGJII@?$AAs?$AAl?$AA?$AA@ 10046290     libcpmt:winapinls.obj
 0002:00002298       ??_C@_15PCFJPHHO@?$AAe?$AAt?$AA?$AA@ 10046298     libcpmt:winapinls.obj
 0002:000022a0       ??_C@_15HPFPGODN@?$AAl?$AAv?$AA?$AA@ 100462a0     libcpmt:winapinls.obj
 0002:000022a8       ??_C@_15NFFGKGLG@?$AAl?$AAt?$AA?$AA@ 100462a8     libcpmt:winapinls.obj
 0002:000022b0       ??_C@_15BDAKCCHN@?$AAf?$AAa?$AA?$AA@ 100462b0     libcpmt:winapinls.obj
 0002:000022b8       ??_C@_15NFGIAIAJ@?$AAv?$AAi?$AA?$AA@ 100462b8     libcpmt:winapinls.obj
 0002:000022c0       ??_C@_15LMKNDMHN@?$AAh?$AAy?$AA?$AA@ 100462c0     libcpmt:winapinls.obj
 0002:000022c8       ??_C@_15IJBHMCFL@?$AAa?$AAz?$AA?$AA@ 100462c8     libcpmt:winapinls.obj
 0002:000022d0       ??_C@_15EKOFJABL@?$AAe?$AAu?$AA?$AA@ 100462d0     libcpmt:winapinls.obj
 0002:000022d8       ??_C@_15BGHADCNK@?$AAm?$AAk?$AA?$AA@ 100462d8     libcpmt:winapinls.obj
 0002:000022e0       ??_C@_15JDNICKHM@?$AAa?$AAf?$AA?$AA@ 100462e0     libcpmt:winapinls.obj
 0002:000022e8       ??_C@_15KPJEDBKD@?$AAk?$AAa?$AA?$AA@ 100462e8     libcpmt:winapinls.obj
 0002:000022f0       ??_C@_15PDNFFFEO@?$AAf?$AAo?$AA?$AA@ 100462f0     libcpmt:winapinls.obj
 0002:000022f8       ??_C@_15OMLEGLOC@?$AAh?$AAi?$AA?$AA@ 100462f8     libcpmt:winapinls.obj
 0002:00002300       ??_C@_15IDNNENKK@?$AAm?$AAs?$AA?$AA@ 10046300     libcpmt:winapinls.obj
 0002:00002308       ??_C@_15MACJNBMH@?$AAk?$AAk?$AA?$AA@ 10046308     libcpmt:winapinls.obj
 0002:00002310       ??_C@_15DKDJEOND@?$AAk?$AAy?$AA?$AA@ 10046310     libcpmt:winapinls.obj
 0002:00002318       ??_C@_15DFGDLJBG@?$AAs?$AAw?$AA?$AA@ 10046318     libcpmt:winapinls.obj
 0002:00002320       ??_C@_15BBFAICNG@?$AAu?$AAz?$AA?$AA@ 10046320     libcpmt:winapinls.obj
 0002:00002328       ??_C@_15DKNDCGEA@?$AAt?$AAt?$AA?$AA@ 10046328     libcpmt:winapinls.obj
 0002:00002330       ??_C@_15MGIFMDPL@?$AAp?$AAa?$AA?$AA@ 10046330     libcpmt:winapinls.obj
 0002:00002338       ??_C@_15HCNDBBA@?$AAg?$AAu?$AA?$AA@ 10046338     libcpmt:winapinls.obj
 0002:00002340       ??_C@_15FNBEIBON@?$AAt?$AAa?$AA?$AA@ 10046340     libcpmt:winapinls.obj
 0002:00002348       ??_C@_15NCHGBGLK@?$AAt?$AAe?$AA?$AA@ 10046348     libcpmt:winapinls.obj
 0002:00002350       ??_C@_15PHPHCBPF@?$AAk?$AAn?$AA?$AA@ 10046350     libcpmt:winapinls.obj
 0002:00002358       ??_C@_15DLGBCKMP@?$AAm?$AAr?$AA?$AA@ 10046358     libcpmt:winapinls.obj
 0002:00002360       ??_C@_15EABBLBFF@?$AAs?$AAa?$AA?$AA@ 10046360     libcpmt:winapinls.obj
 0002:00002368       ??_C@_15CBKOMCOI@?$AAm?$AAn?$AA?$AA@ 10046368     libcpmt:winapinls.obj
 0002:00002370       ??_C@_15CKDMCJAF@?$AAg?$AAl?$AA?$AA@ 10046370     libcpmt:winapinls.obj
 0002:00002378       ??_C@_17CNJFBPG@?$AAk?$AAo?$AAk?$AA?$AA@ 10046378     libcpmt:winapinls.obj
 0002:00002380       ??_C@_17FFBJICPL@?$AAs?$AAy?$AAr?$AA?$AA@ 10046380     libcpmt:winapinls.obj
 0002:00002388       ??_C@_17KPNDCPAF@?$AAd?$AAi?$AAv?$AA?$AA@ 10046388     libcpmt:winapinls.obj
 0002:00002390       ??_C@_11LOCGONAA@?$AA?$AA@ 10046390     libcpmt:winapinls.obj
 0002:00002394       ??_C@_1M@OKAHONE@?$AAa?$AAr?$AA?9?$AAS?$AAA?$AA?$AA@ 10046394     libcpmt:winapinls.obj
 0002:000023a0       ??_C@_1M@FFFIGIGK@?$AAb?$AAg?$AA?9?$AAB?$AAG?$AA?$AA@ 100463a0     libcpmt:winapinls.obj
 0002:000023ac       ??_C@_1M@BJNKEDC@?$AAc?$AAa?$AA?9?$AAE?$AAS?$AA?$AA@ 100463ac     libcpmt:winapinls.obj
 0002:000023b8       ??_C@_1M@CLNBBOPM@?$AAz?$AAh?$AA?9?$AAT?$AAW?$AA?$AA@ 100463b8     libcpmt:winapinls.obj
 0002:000023c4       ??_C@_1M@IJJHFJHA@?$AAc?$AAs?$AA?9?$AAC?$AAZ?$AA?$AA@ 100463c4     libcpmt:winapinls.obj
 0002:000023d0       ??_C@_1M@CLPEOBGI@?$AAd?$AAa?$AA?9?$AAD?$AAK?$AA?$AA@ 100463d0     libcpmt:winapinls.obj
 0002:000023dc       ??_C@_1M@MCMADGCB@?$AAd?$AAe?$AA?9?$AAD?$AAE?$AA?$AA@ 100463dc     libcpmt:winapinls.obj
 0002:000023e8       ??_C@_1M@OOCKEMAM@?$AAe?$AAl?$AA?9?$AAG?$AAR?$AA?$AA@ 100463e8     libcpmt:winapinls.obj
 0002:000023f4       ??_C@_1M@BMHNFIME@?$AAe?$AAn?$AA?9?$AAU?$AAS?$AA?$AA@ 100463f4     libcpmt:winapinls.obj
 0002:00002400       ??_C@_1M@DDNJFGID@?$AAf?$AAi?$AA?9?$AAF?$AAI?$AA?$AA@ 10046400     libcpmt:winapinls.obj
 0002:0000240c       ??_C@_1M@GLIPPMAC@?$AAf?$AAr?$AA?9?$AAF?$AAR?$AA?$AA@ 1004640c     libcpmt:winapinls.obj
 0002:00002418       ??_C@_1M@GFMCHPE@?$AAh?$AAe?$AA?9?$AAI?$AAL?$AA?$AA@ 10046418     libcpmt:winapinls.obj
 0002:00002424       ??_C@_1M@MHLPGNKM@?$AAh?$AAu?$AA?9?$AAH?$AAU?$AA?$AA@ 10046424     libcpmt:winapinls.obj
 0002:00002430       ??_C@_1M@LPDDNNPN@?$AAi?$AAs?$AA?9?$AAI?$AAS?$AA?$AA@ 10046430     libcpmt:winapinls.obj
 0002:0000243c       ??_C@_1M@MADIPODN@?$AAi?$AAt?$AA?9?$AAI?$AAT?$AA?$AA@ 1004643c     libcpmt:winapinls.obj
 0002:00002448       ??_C@_1M@HPNHIDJI@?$AAj?$AAa?$AA?9?$AAJ?$AAP?$AA?$AA@ 10046448     libcpmt:winapinls.obj
 0002:00002454       ??_C@_1M@JLOOOEGK@?$AAk?$AAo?$AA?9?$AAK?$AAR?$AA?$AA@ 10046454     libcpmt:winapinls.obj
 0002:00002460       ??_C@_1M@IHBJJGG@?$AAn?$AAl?$AA?9?$AAN?$AAL?$AA?$AA@ 10046460     libcpmt:winapinls.obj
 0002:0000246c       ??_C@_1M@EANAGDL@?$AAn?$AAb?$AA?9?$AAN?$AAO?$AA?$AA@ 1004646c     libcpmt:winapinls.obj
 0002:00002478       ??_C@_1M@NEIEMEGP@?$AAp?$AAl?$AA?9?$AAP?$AAL?$AA?$AA@ 10046478     libcpmt:winapinls.obj
 0002:00002484       ??_C@_1M@BOCFIGEP@?$AAp?$AAt?$AA?9?$AAB?$AAR?$AA?$AA@ 10046484     libcpmt:winapinls.obj
 0002:00002490       ??_C@_1M@IMPFOPBG@?$AAr?$AAo?$AA?9?$AAR?$AAO?$AA?$AA@ 10046490     libcpmt:winapinls.obj
 0002:0000249c       ??_C@_1M@IDNNEJMM@?$AAr?$AAu?$AA?9?$AAR?$AAU?$AA?$AA@ 1004649c     libcpmt:winapinls.obj
 0002:000024a8       ??_C@_1M@LILEEOGM@?$AAh?$AAr?$AA?9?$AAH?$AAR?$AA?$AA@ 100464a8     libcpmt:winapinls.obj
 0002:000024b4       ??_C@_1M@FKIFEHPB@?$AAs?$AAk?$AA?9?$AAS?$AAK?$AA?$AA@ 100464b4     libcpmt:winapinls.obj
 0002:000024c0       ??_C@_1M@LJMAMNPJ@?$AAs?$AAq?$AA?9?$AAA?$AAL?$AA?$AA@ 100464c0     libcpmt:winapinls.obj
 0002:000024cc       ??_C@_1M@GIAKDKJK@?$AAs?$AAv?$AA?9?$AAS?$AAE?$AA?$AA@ 100464cc     libcpmt:winapinls.obj
 0002:000024d8       ??_C@_1M@MKJKIKCL@?$AAt?$AAh?$AA?9?$AAT?$AAH?$AA?$AA@ 100464d8     libcpmt:winapinls.obj
 0002:000024e4       ??_C@_1M@MFLCCMPB@?$AAt?$AAr?$AA?9?$AAT?$AAR?$AA?$AA@ 100464e4     libcpmt:winapinls.obj
 0002:000024f0       ??_C@_1M@OIJHDKJN@?$AAu?$AAr?$AA?9?$AAP?$AAK?$AA?$AA@ 100464f0     libcpmt:winapinls.obj
 0002:000024fc       ??_C@_1M@LHIPCIEK@?$AAi?$AAd?$AA?9?$AAI?$AAD?$AA?$AA@ 100464fc     libcpmt:winapinls.obj
 0002:00002508       ??_C@_1M@MFMOBGI@?$AAu?$AAk?$AA?9?$AAU?$AAA?$AA?$AA@ 10046508     libcpmt:winapinls.obj
 0002:00002514       ??_C@_1M@OBGLJIPL@?$AAb?$AAe?$AA?9?$AAB?$AAY?$AA?$AA@ 10046514     libcpmt:winapinls.obj
 0002:00002520       ??_C@_1M@BCFAJEAD@?$AAs?$AAl?$AA?9?$AAS?$AAI?$AA?$AA@ 10046520     libcpmt:winapinls.obj
 0002:0000252c       ??_C@_1M@FKFFEDDN@?$AAe?$AAt?$AA?9?$AAE?$AAE?$AA?$AA@ 1004652c     libcpmt:winapinls.obj
 0002:00002538       ??_C@_1M@KGKKAACI@?$AAl?$AAv?$AA?9?$AAL?$AAV?$AA?$AA@ 10046538     libcpmt:winapinls.obj
 0002:00002544       ??_C@_1M@IFGBIJO@?$AAl?$AAt?$AA?9?$AAL?$AAT?$AA?$AA@ 10046544     libcpmt:winapinls.obj
 0002:00002550       ??_C@_1M@FGEAHEDM@?$AAf?$AAa?$AA?9?$AAI?$AAR?$AA?$AA@ 10046550     libcpmt:winapinls.obj
 0002:0000255c       ??_C@_1M@KBMAIBFN@?$AAv?$AAi?$AA?9?$AAV?$AAN?$AA?$AA@ 1004655c     libcpmt:winapinls.obj
 0002:00002568       ??_C@_1M@GPCBKDJK@?$AAh?$AAy?$AA?9?$AAA?$AAM?$AA?$AA@ 10046568     libcpmt:winapinls.obj
 0002:00002574       ??_C@_1BG@BECMDDJB@?$AAa?$AAz?$AA?9?$AAA?$AAZ?$AA?9?$AAL?$AAa?$AAt?$AAn?$AA?$AA@ 10046574     libcpmt:winapinls.obj
 0002:0000258c       ??_C@_1M@MAOFCAEA@?$AAe?$AAu?$AA?9?$AAE?$AAS?$AA?$AA@ 1004658c     libcpmt:winapinls.obj
 0002:00002598       ??_C@_1M@IGHABKPI@?$AAm?$AAk?$AA?9?$AAM?$AAK?$AA?$AA@ 10046598     libcpmt:winapinls.obj
 0002:000025a4       ??_C@_1M@IAIGNEJG@?$AAt?$AAn?$AA?9?$AAZ?$AAA?$AA?$AA@ 100465a4     libcpmt:winapinls.obj
 0002:000025b0       ??_C@_1M@IIJCOJFA@?$AAx?$AAh?$AA?9?$AAZ?$AAA?$AA?$AA@ 100465b0     libcpmt:winapinls.obj
 0002:000025bc       ??_C@_1M@LGPJHNJH@?$AAz?$AAu?$AA?9?$AAZ?$AAA?$AA?$AA@ 100465bc     libcpmt:winapinls.obj
 0002:000025c8       ??_C@_1M@HOKAOIO@?$AAa?$AAf?$AA?9?$AAZ?$AAA?$AA?$AA@ 100465c8     libcpmt:winapinls.obj
 0002:000025d4       ??_C@_1M@DPCLHLIE@?$AAk?$AAa?$AA?9?$AAG?$AAE?$AA?$AA@ 100465d4     libcpmt:winapinls.obj
 0002:000025e0       ??_C@_1M@BLKMHJBI@?$AAf?$AAo?$AA?9?$AAF?$AAO?$AA?$AA@ 100465e0     libcpmt:winapinls.obj
 0002:000025ec       ??_C@_1M@LGGJAPPB@?$AAh?$AAi?$AA?9?$AAI?$AAN?$AA?$AA@ 100465ec     libcpmt:winapinls.obj
 0002:000025f8       ??_C@_1M@FIKPIHFE@?$AAm?$AAt?$AA?9?$AAM?$AAT?$AA?$AA@ 100465f8     libcpmt:winapinls.obj
 0002:00002604       ??_C@_1M@HEGGPBFA@?$AAs?$AAe?$AA?9?$AAN?$AAO?$AA?$AA@ 10046604     libcpmt:winapinls.obj
 0002:00002610       ??_C@_1M@EIBJEEPA@?$AAm?$AAs?$AA?9?$AAM?$AAY?$AA?$AA@ 10046610     libcpmt:winapinls.obj
 0002:0000261c       ??_C@_1M@FHLBGMPP@?$AAk?$AAk?$AA?9?$AAK?$AAZ?$AA?$AA@ 1004661c     libcpmt:winapinls.obj
 0002:00002628       ??_C@_1M@NGJJLCGI@?$AAk?$AAy?$AA?9?$AAK?$AAG?$AA?$AA@ 10046628     libcpmt:winapinls.obj
 0002:00002634       ??_C@_1M@GIENNBFC@?$AAs?$AAw?$AA?9?$AAK?$AAE?$AA?$AA@ 10046634     libcpmt:winapinls.obj
 0002:00002640       ??_C@_1BG@NDGMJIMJ@?$AAu?$AAz?$AA?9?$AAU?$AAZ?$AA?9?$AAL?$AAa?$AAt?$AAn?$AA?$AA@ 10046640     libcpmt:winapinls.obj
 0002:00002658       ??_C@_1M@IDCCIHBC@?$AAt?$AAt?$AA?9?$AAR?$AAU?$AA?$AA@ 10046658     libcpmt:winapinls.obj
 0002:00002664       ??_C@_1M@LOICPMOJ@?$AAb?$AAn?$AA?9?$AAI?$AAN?$AA?$AA@ 10046664     libcpmt:winapinls.obj
 0002:00002670       ??_C@_1M@KPKKNEAH@?$AAp?$AAa?$AA?9?$AAI?$AAN?$AA?$AA@ 10046670     libcpmt:winapinls.obj
 0002:0000267c       ??_C@_1M@PJGPPBOG@?$AAg?$AAu?$AA?9?$AAI?$AAN?$AA?$AA@ 1004667c     libcpmt:winapinls.obj
 0002:00002688       ??_C@_1M@KMKMOPHI@?$AAt?$AAa?$AA?9?$AAI?$AAN?$AA?$AA@ 10046688     libcpmt:winapinls.obj
 0002:00002694       ??_C@_1M@KFEHEPAC@?$AAt?$AAe?$AA?9?$AAI?$AAN?$AA?$AA@ 10046694     libcpmt:winapinls.obj
 0002:000026a0       ??_C@_1M@CDCLMGHI@?$AAk?$AAn?$AA?9?$AAI?$AAN?$AA?$AA@ 100466a0     libcpmt:winapinls.obj
 0002:000026ac       ??_C@_1M@MIODLDKF@?$AAm?$AAl?$AA?9?$AAI?$AAN?$AA?$AA@ 100466ac     libcpmt:winapinls.obj
 0002:000026b8       ??_C@_1M@PBIEACPO@?$AAm?$AAr?$AA?9?$AAI?$AAN?$AA?$AA@ 100466b8     libcpmt:winapinls.obj
 0002:000026c4       ??_C@_1M@NIDEAGPH@?$AAs?$AAa?$AA?9?$AAI?$AAN?$AA?$AA@ 100466c4     libcpmt:winapinls.obj
 0002:000026d0       ??_C@_1M@FHIHCBIO@?$AAm?$AAn?$AA?9?$AAM?$AAN?$AA?$AA@ 100466d0     libcpmt:winapinls.obj
 0002:000026dc       ??_C@_1M@JAIJPENP@?$AAc?$AAy?$AA?9?$AAG?$AAB?$AA?$AA@ 100466dc     libcpmt:winapinls.obj
 0002:000026e8       ??_C@_1M@PHGFBEPN@?$AAg?$AAl?$AA?9?$AAE?$AAS?$AA?$AA@ 100466e8     libcpmt:winapinls.obj
 0002:000026f4       ??_C@_1O@KPIPDNCP@?$AAk?$AAo?$AAk?$AA?9?$AAI?$AAN?$AA?$AA@ 100466f4     libcpmt:winapinls.obj
 0002:00002704       ??_C@_1O@KNHJLDJA@?$AAs?$AAy?$AAr?$AA?9?$AAS?$AAY?$AA?$AA@ 10046704     libcpmt:winapinls.obj
 0002:00002714       ??_C@_1O@MKEKBLAH@?$AAd?$AAi?$AAv?$AA?9?$AAM?$AAV?$AA?$AA@ 10046714     libcpmt:winapinls.obj
 0002:00002724       ??_C@_1O@OHDCKDDF@?$AAq?$AAu?$AAz?$AA?9?$AAB?$AAO?$AA?$AA@ 10046724     libcpmt:winapinls.obj
 0002:00002734       ??_C@_1M@LEPJNLFD@?$AAn?$AAs?$AA?9?$AAZ?$AAA?$AA?$AA@ 10046734     libcpmt:winapinls.obj
 0002:00002740       ??_C@_1M@OMLEIIJB@?$AAm?$AAi?$AA?9?$AAN?$AAZ?$AA?$AA@ 10046740     libcpmt:winapinls.obj
 0002:0000274c       ??_C@_1M@PMPEAILG@?$AAa?$AAr?$AA?9?$AAI?$AAQ?$AA?$AA@ 1004674c     libcpmt:winapinls.obj
 0002:00002758       ??_C@_1M@BIBDDEMK@?$AAz?$AAh?$AA?9?$AAC?$AAN?$AA?$AA@ 10046758     libcpmt:winapinls.obj
 0002:00002764       ??_C@_1M@CNKPNOEE@?$AAd?$AAe?$AA?9?$AAC?$AAH?$AA?$AA@ 10046764     libcpmt:winapinls.obj
 0002:00002770       ??_C@_1M@LKMGMLKO@?$AAe?$AAn?$AA?9?$AAG?$AAB?$AA?$AA@ 10046770     libcpmt:winapinls.obj
 0002:0000277c       ??_C@_1M@PGKJFFGL@?$AAe?$AAs?$AA?9?$AAM?$AAX?$AA?$AA@ 1004677c     libcpmt:winapinls.obj
 0002:00002788       ??_C@_1M@DNNANBDC@?$AAf?$AAr?$AA?9?$AAB?$AAE?$AA?$AA@ 10046788     libcpmt:winapinls.obj
 0002:00002794       ??_C@_1M@HLGMDFHM@?$AAi?$AAt?$AA?9?$AAC?$AAH?$AA?$AA@ 10046794     libcpmt:winapinls.obj
 0002:000027a0       ??_C@_1M@CLLBGJH@?$AAn?$AAl?$AA?9?$AAB?$AAE?$AA?$AA@ 100467a0     libcpmt:winapinls.obj
 0002:000027ac       ??_C@_1M@BODBOGLF@?$AAn?$AAn?$AA?9?$AAN?$AAO?$AA?$AA@ 100467ac     libcpmt:winapinls.obj
 0002:000027b8       ??_C@_1M@HFFAHKAD@?$AAp?$AAt?$AA?9?$AAP?$AAT?$AA?$AA@ 100467b8     libcpmt:winapinls.obj
 0002:000027c4       ??_C@_1BG@LNOAKHIE@?$AAs?$AAr?$AA?9?$AAS?$AAP?$AA?9?$AAL?$AAa?$AAt?$AAn?$AA?$AA@ 100467c4     libcpmt:winapinls.obj
 0002:000027dc       ??_C@_1M@HBMHBGAK@?$AAs?$AAv?$AA?9?$AAF?$AAI?$AA?$AA@ 100467dc     libcpmt:winapinls.obj
 0002:000027e8       ??_C@_1BG@DGCJGJBE@?$AAa?$AAz?$AA?9?$AAA?$AAZ?$AA?9?$AAC?$AAy?$AAr?$AAl?$AA?$AA@ 100467e8     libcpmt:winapinls.obj
 0002:00002800       ??_C@_1M@KEJDAAHB@?$AAs?$AAe?$AA?9?$AAS?$AAE?$AA?$AA@ 10046800     libcpmt:winapinls.obj
 0002:0000280c       ??_C@_1M@HEIBJJAD@?$AAm?$AAs?$AA?9?$AAB?$AAN?$AA?$AA@ 1004680c     libcpmt:winapinls.obj
 0002:00002818       ??_C@_1BG@PBGJMCEM@?$AAu?$AAz?$AA?9?$AAU?$AAZ?$AA?9?$AAC?$AAy?$AAr?$AAl?$AA?$AA@ 10046818     libcpmt:winapinls.obj
 0002:00002830       ??_C@_1O@LAOBCMDF@?$AAq?$AAu?$AAz?$AA?9?$AAE?$AAC?$AA?$AA@ 10046830     libcpmt:winapinls.obj
 0002:00002840       ??_C@_1M@POEEMAIO@?$AAa?$AAr?$AA?9?$AAE?$AAG?$AA?$AA@ 10046840     libcpmt:winapinls.obj
 0002:0000284c       ??_C@_1M@EFAKDEDL@?$AAz?$AAh?$AA?9?$AAH?$AAK?$AA?$AA@ 1004684c     libcpmt:winapinls.obj
 0002:00002858       ??_C@_1M@HKKIJHGI@?$AAd?$AAe?$AA?9?$AAA?$AAT?$AA?$AA@ 10046858     libcpmt:winapinls.obj
 0002:00002864       ??_C@_1M@KBFBEHJF@?$AAe?$AAn?$AA?9?$AAA?$AAU?$AA?$AA@ 10046864     libcpmt:winapinls.obj
 0002:00002870       ??_C@_1M@MNPLFAAH@?$AAe?$AAs?$AA?9?$AAE?$AAS?$AA?$AA@ 10046870     libcpmt:winapinls.obj
 0002:0000287c       ??_C@_1M@HJOOJFMA@?$AAf?$AAr?$AA?9?$AAC?$AAA?$AA?$AA@ 1004687c     libcpmt:winapinls.obj
 0002:00002888       ??_C@_1BG@JPOFPNAB@?$AAs?$AAr?$AA?9?$AAS?$AAP?$AA?9?$AAC?$AAy?$AAr?$AAl?$AA?$AA@ 10046888     libcpmt:winapinls.obj
 0002:000028a0       ??_C@_1M@LNFOCMOB@?$AAs?$AAe?$AA?9?$AAF?$AAI?$AA?$AA@ 100468a0     libcpmt:winapinls.obj
 0002:000028ac       ??_C@_1O@MGJBOAMB@?$AAq?$AAu?$AAz?$AA?9?$AAP?$AAE?$AA?$AA@ 100468ac     libcpmt:winapinls.obj
 0002:000028bc       ??_C@_1M@GJINLBOK@?$AAa?$AAr?$AA?9?$AAL?$AAY?$AA?$AA@ 100468bc     libcpmt:winapinls.obj
 0002:000028c8       ??_C@_1M@GGMNHJNL@?$AAz?$AAh?$AA?9?$AAS?$AAG?$AA?$AA@ 100468c8     libcpmt:winapinls.obj
 0002:000028d4       ??_C@_1M@HOIKODND@?$AAd?$AAe?$AA?9?$AAL?$AAU?$AA?$AA@ 100468d4     libcpmt:winapinls.obj
 0002:000028e0       ??_C@_1M@DDOCCGFG@?$AAe?$AAn?$AA?9?$AAC?$AAA?$AA?$AA@ 100468e0     libcpmt:winapinls.obj
 0002:000028ec       ??_C@_1M@BNOEMJLF@?$AAe?$AAs?$AA?9?$AAG?$AAT?$AA?$AA@ 100468ec     libcpmt:winapinls.obj
 0002:000028f8       ??_C@_1M@EOGNKEK@?$AAf?$AAr?$AA?9?$AAC?$AAH?$AA?$AA@ 100468f8     libcpmt:winapinls.obj
 0002:00002904       ??_C@_1M@FLIDJFHL@?$AAh?$AAr?$AA?9?$AAB?$AAA?$AA?$AA@ 10046904     libcpmt:winapinls.obj
 0002:00002910       ??_C@_1O@FMCELNAJ@?$AAs?$AAm?$AAj?$AA?9?$AAN?$AAO?$AA?$AA@ 10046910     libcpmt:winapinls.obj
 0002:00002920       ??_C@_1M@JHGLJMGJ@?$AAa?$AAr?$AA?9?$AAD?$AAZ?$AA?$AA@ 10046920     libcpmt:winapinls.obj
 0002:0000292c       ??_C@_1M@JKKFDCNP@?$AAz?$AAh?$AA?9?$AAM?$AAO?$AA?$AA@ 1004692c     libcpmt:winapinls.obj
 0002:00002938       ??_C@_1M@GEEFALPE@?$AAd?$AAe?$AA?9?$AAL?$AAI?$AA?$AA@ 10046938     libcpmt:winapinls.obj
 0002:00002944       ??_C@_1M@IGEOFBG@?$AAe?$AAn?$AA?9?$AAN?$AAZ?$AA?$AA@ 10046944     libcpmt:winapinls.obj
 0002:00002950       ??_C@_1M@KDBONEHP@?$AAe?$AAs?$AA?9?$AAC?$AAR?$AA?$AA@ 10046950     libcpmt:winapinls.obj
 0002:0000295c       ??_C@_1M@FHMDOHNN@?$AAf?$AAr?$AA?9?$AAL?$AAU?$AA?$AA@ 1004695c     libcpmt:winapinls.obj
 0002:00002968       ??_C@_1BG@NFKKMAFG@?$AAb?$AAs?$AA?9?$AAB?$AAA?$AA?9?$AAL?$AAa?$AAt?$AAn?$AA?$AA@ 10046968     libcpmt:winapinls.obj
 0002:00002980       ??_C@_1O@IMNBEMCI@?$AAs?$AAm?$AAj?$AA?9?$AAS?$AAE?$AA?$AA@ 10046980     libcpmt:winapinls.obj
 0002:00002990       ??_C@_1M@DHHMBNDP@?$AAa?$AAr?$AA?9?$AAM?$AAA?$AA?$AA@ 10046990     libcpmt:winapinls.obj
 0002:0000299c       ??_C@_1M@BNBLJCGH@?$AAe?$AAn?$AA?9?$AAI?$AAE?$AA?$AA@ 1004699c     libcpmt:winapinls.obj
 0002:000029a8       ??_C@_1M@GEPAFMDL@?$AAe?$AAs?$AA?9?$AAP?$AAA?$AA?$AA@ 100469a8     libcpmt:winapinls.obj
 0002:000029b4       ??_C@_1M@OJONDMDL@?$AAf?$AAr?$AA?9?$AAM?$AAC?$AA?$AA@ 100469b4     libcpmt:winapinls.obj
 0002:000029c0       ??_C@_1BG@OBCNFJB@?$AAs?$AAr?$AA?9?$AAB?$AAA?$AA?9?$AAL?$AAa?$AAt?$AAn?$AA?$AA@ 100469c0     libcpmt:winapinls.obj
 0002:000029d8       ??_C@_1O@KEMEEGPO@?$AAs?$AAm?$AAa?$AA?9?$AAN?$AAO?$AA?$AA@ 100469d8     libcpmt:winapinls.obj
 0002:000029e8       ??_C@_1M@ELMGFODK@?$AAa?$AAr?$AA?9?$AAT?$AAN?$AA?$AA@ 100469e8     libcpmt:winapinls.obj
 0002:000029f4       ??_C@_1M@BHDLHFAF@?$AAe?$AAn?$AA?9?$AAZ?$AAA?$AA?$AA@ 100469f4     libcpmt:winapinls.obj
 0002:00002a00       ??_C@_1M@BMGIGLIF@?$AAe?$AAs?$AA?9?$AAD?$AAO?$AA?$AA@ 10046a00     libcpmt:winapinls.obj
 0002:00002a0c       ??_C@_1BG@CMBHIPBE@?$AAs?$AAr?$AA?9?$AAB?$AAA?$AA?9?$AAC?$AAy?$AAr?$AAl?$AA?$AA@ 10046a0c     libcpmt:winapinls.obj
 0002:00002a24       ??_C@_1O@HEDBLHNP@?$AAs?$AAm?$AAa?$AA?9?$AAS?$AAE?$AA?$AA@ 10046a24     libcpmt:winapinls.obj
 0002:00002a34       ??_C@_1M@DAGCADIM@?$AAa?$AAr?$AA?9?$AAO?$AAM?$AA?$AA@ 10046a34     libcpmt:winapinls.obj
 0002:00002a40       ??_C@_1M@FODLMICG@?$AAe?$AAn?$AA?9?$AAJ?$AAM?$AA?$AA@ 10046a40     libcpmt:winapinls.obj
 0002:00002a4c       ??_C@_1M@DNMLCIHB@?$AAe?$AAs?$AA?9?$AAV?$AAE?$AA?$AA@ 10046a4c     libcpmt:winapinls.obj
 0002:00002a58       ??_C@_1O@EOKHMKJK@?$AAs?$AAm?$AAs?$AA?9?$AAF?$AAI?$AA?$AA@ 10046a58     libcpmt:winapinls.obj
 0002:00002a68       ??_C@_1M@CAFJMKOF@?$AAa?$AAr?$AA?9?$AAY?$AAE?$AA?$AA@ 10046a68     libcpmt:winapinls.obj
 0002:00002a74       ??_C@_1M@CBFHIJLI@?$AAe?$AAn?$AA?9?$AAC?$AAB?$AA?$AA@ 10046a74     libcpmt:winapinls.obj
 0002:00002a80       ??_C@_1M@BGNFLDN@?$AAe?$AAs?$AA?9?$AAC?$AAO?$AA?$AA@ 10046a80     libcpmt:winapinls.obj
 0002:00002a8c       ??_C@_1O@JMPHMAMC@?$AAs?$AAm?$AAn?$AA?9?$AAF?$AAI?$AA?$AA@ 10046a8c     libcpmt:winapinls.obj
 0002:00002a9c       ??_C@_1M@JLANABKE@?$AAa?$AAr?$AA?9?$AAS?$AAY?$AA?$AA@ 10046a9c     libcpmt:winapinls.obj
 0002:00002aa8       ??_C@_1M@HPKGCFGN@?$AAe?$AAn?$AA?9?$AAB?$AAZ?$AA?$AA@ 10046aa8     libcpmt:winapinls.obj
 0002:00002ab4       ??_C@_1M@OLJCMLGM@?$AAe?$AAs?$AA?9?$AAP?$AAE?$AA?$AA@ 10046ab4     libcpmt:winapinls.obj
 0002:00002ac0       ??_C@_1M@MKKGFKLE@?$AAa?$AAr?$AA?9?$AAJ?$AAO?$AA?$AA@ 10046ac0     libcpmt:winapinls.obj
 0002:00002acc       ??_C@_1M@EKPGLDNI@?$AAe?$AAn?$AA?9?$AAT?$AAT?$AA?$AA@ 10046acc     libcpmt:winapinls.obj
 0002:00002ad8       ??_C@_1M@OONGHFHE@?$AAe?$AAs?$AA?9?$AAA?$AAR?$AA?$AA@ 10046ad8     libcpmt:winapinls.obj
 0002:00002ae4       ??_C@_1M@OOJFGBHE@?$AAa?$AAr?$AA?9?$AAL?$AAB?$AA?$AA@ 10046ae4     libcpmt:winapinls.obj
 0002:00002af0       ??_C@_1M@GCEJHNEG@?$AAe?$AAn?$AA?9?$AAZ?$AAW?$AA?$AA@ 10046af0     libcpmt:winapinls.obj
 0002:00002afc       ??_C@_1M@JNOCAHJI@?$AAe?$AAs?$AA?9?$AAE?$AAC?$AA?$AA@ 10046afc     libcpmt:winapinls.obj
 0002:00002b08       ??_C@_1M@JEFHPGGB@?$AAa?$AAr?$AA?9?$AAK?$AAW?$AA?$AA@ 10046b08     libcpmt:winapinls.obj
 0002:00002b14       ??_C@_1M@MLKIBJOJ@?$AAe?$AAn?$AA?9?$AAP?$AAH?$AA?$AA@ 10046b14     libcpmt:winapinls.obj
 0002:00002b20       ??_C@_1M@BDNIPEND@?$AAe?$AAs?$AA?9?$AAC?$AAL?$AA?$AA@ 10046b20     libcpmt:winapinls.obj
 0002:00002b2c       ??_C@_1M@MPNMEKBD@?$AAa?$AAr?$AA?9?$AAA?$AAE?$AA?$AA@ 10046b2c     libcpmt:winapinls.obj
 0002:00002b38       ??_C@_1M@KBJALCPI@?$AAe?$AAs?$AA?9?$AAU?$AAY?$AA?$AA@ 10046b38     libcpmt:winapinls.obj
 0002:00002b44       ??_C@_1M@LLCCOAGA@?$AAa?$AAr?$AA?9?$AAB?$AAH?$AA?$AA@ 10046b44     libcpmt:winapinls.obj
 0002:00002b50       ??_C@_1M@PBFNCDEL@?$AAe?$AAs?$AA?9?$AAP?$AAY?$AA?$AA@ 10046b50     libcpmt:winapinls.obj
 0002:00002b5c       ??_C@_1M@EDGINPNP@?$AAa?$AAr?$AA?9?$AAQ?$AAA?$AA?$AA@ 10046b5c     libcpmt:winapinls.obj
 0002:00002b68       ??_C@_1M@MKDBIIJI@?$AAe?$AAs?$AA?9?$AAB?$AAO?$AA?$AA@ 10046b68     libcpmt:winapinls.obj
 0002:00002b74       ??_C@_1M@CPKKEBLD@?$AAe?$AAs?$AA?9?$AAS?$AAV?$AA?$AA@ 10046b74     libcpmt:winapinls.obj
 0002:00002b80       ??_C@_1M@NDBGMMJL@?$AAe?$AAs?$AA?9?$AAH?$AAN?$AA?$AA@ 10046b80     libcpmt:winapinls.obj
 0002:00002b8c       ??_C@_1M@JIJIBHDP@?$AAe?$AAs?$AA?9?$AAN?$AAI?$AA?$AA@ 10046b8c     libcpmt:winapinls.obj
 0002:00002b98       ??_C@_1M@CGFMKEEK@?$AAe?$AAs?$AA?9?$AAP?$AAR?$AA?$AA@ 10046b98     libcpmt:winapinls.obj
 0002:00002ba4       ??_C@_1O@ICJHKIIK@?$AAz?$AAh?$AA?9?$AAC?$AAH?$AAT?$AA?$AA@ 10046ba4     libcpmt:winapinls.obj
 0002:00002bb4       ??_C@_15CLNEJCE@?$AAs?$AAr?$AA?$AA@ 10046bb4     libcpmt:winapinls.obj
 0002:00002bbc       ??_C@_1M@KAHEKEIG@?$AAa?$AAf?$AA?9?$AAz?$AAa?$AA?$AA@ 10046bbc     libcpmt:winapinls.obj
 0002:00002bc8       ??_C@_1M@GIECOABL@?$AAa?$AAr?$AA?9?$AAa?$AAe?$AA?$AA@ 10046bc8     libcpmt:winapinls.obj
 0002:00002bd4       ??_C@_1M@BMLMEKGI@?$AAa?$AAr?$AA?9?$AAb?$AAh?$AA?$AA@ 10046bd4     libcpmt:winapinls.obj
 0002:00002be0       ??_C@_1M@DAPFDGGB@?$AAa?$AAr?$AA?9?$AAd?$AAz?$AA?$AA@ 10046be0     libcpmt:winapinls.obj
 0002:00002bec       ??_C@_1M@FJNKGKIG@?$AAa?$AAr?$AA?9?$AAe?$AAg?$AA?$AA@ 10046bec     libcpmt:winapinls.obj
 0002:00002bf8       ??_C@_1M@FLGKKCLO@?$AAa?$AAr?$AA?9?$AAi?$AAq?$AA?$AA@ 10046bf8     libcpmt:winapinls.obj
 0002:00002c04       ??_C@_1M@GNDIPALM@?$AAa?$AAr?$AA?9?$AAj?$AAo?$AA?$AA@ 10046c04     libcpmt:winapinls.obj
 0002:00002c10       ??_C@_1M@DDMJFMGJ@?$AAa?$AAr?$AA?9?$AAk?$AAw?$AA?$AA@ 10046c10     libcpmt:winapinls.obj
 0002:00002c1c       ??_C@_1M@EJALMLHM@?$AAa?$AAr?$AA?9?$AAl?$AAb?$AA?$AA@ 10046c1c     libcpmt:winapinls.obj
 0002:00002c28       ??_C@_1M@MOBDBLOC@?$AAa?$AAr?$AA?9?$AAl?$AAy?$AA?$AA@ 10046c28     libcpmt:winapinls.obj
 0002:00002c34       ??_C@_1M@JAOCLHDH@?$AAa?$AAr?$AA?9?$AAm?$AAa?$AA?$AA@ 10046c34     libcpmt:winapinls.obj
 0002:00002c40       ??_C@_1M@JHPMKJIE@?$AAa?$AAr?$AA?9?$AAo?$AAm?$AA?$AA@ 10046c40     libcpmt:winapinls.obj
 0002:00002c4c       ??_C@_1M@OEPGHFNH@?$AAa?$AAr?$AA?9?$AAq?$AAa?$AA?$AA@ 10046c4c     libcpmt:winapinls.obj
 0002:00002c58       ??_C@_1M@KJDONENM@?$AAa?$AAr?$AA?9?$AAs?$AAa?$AA?$AA@ 10046c58     libcpmt:winapinls.obj
 0002:00002c64       ??_C@_1M@DMJDKLKM@?$AAa?$AAr?$AA?9?$AAs?$AAy?$AA?$AA@ 10046c64     libcpmt:winapinls.obj
 0002:00002c70       ??_C@_1M@OMFIPEDC@?$AAa?$AAr?$AA?9?$AAt?$AAn?$AA?$AA@ 10046c70     libcpmt:winapinls.obj
 0002:00002c7c       ??_C@_1M@IHMHGAON@?$AAa?$AAr?$AA?9?$AAy?$AAe?$AA?$AA@ 10046c7c     libcpmt:winapinls.obj
 0002:00002c88       ??_C@_1BG@KDCPGJGB@?$AAa?$AAz?$AA?9?$AAa?$AAz?$AA?9?$AAc?$AAy?$AAr?$AAl?$AA?$AA@ 10046c88     libcpmt:winapinls.obj
 0002:00002ca0       ??_C@_1BG@IBCKDDOE@?$AAa?$AAz?$AA?9?$AAa?$AAz?$AA?9?$AAl?$AAa?$AAt?$AAn?$AA?$AA@ 10046ca0     libcpmt:winapinls.obj
 0002:00002cb8       ??_C@_1M@EGPFDCPD@?$AAb?$AAe?$AA?9?$AAb?$AAy?$AA?$AA@ 10046cb8     libcpmt:winapinls.obj
 0002:00002cc4       ??_C@_1M@PCMGMCGC@?$AAb?$AAg?$AA?9?$AAb?$AAg?$AA?$AA@ 10046cc4     libcpmt:winapinls.obj
 0002:00002cd0       ??_C@_1M@BJBMFGOB@?$AAb?$AAn?$AA?9?$AAi?$AAn?$AA?$AA@ 10046cd0     libcpmt:winapinls.obj
 0002:00002cdc       ??_C@_1BG@EAKMMACD@?$AAb?$AAs?$AA?9?$AAb?$AAa?$AA?9?$AAl?$AAa?$AAt?$AAn?$AA?$AA@ 10046cdc     libcpmt:winapinls.obj
 0002:00002cf4       ??_C@_1M@KGADAODK@?$AAc?$AAa?$AA?9?$AAe?$AAs?$AA?$AA@ 10046cf4     libcpmt:winapinls.obj
 0002:00002d00       ??_C@_1M@COAJPDHI@?$AAc?$AAs?$AA?9?$AAc?$AAz?$AA?$AA@ 10046d00     libcpmt:winapinls.obj
 0002:00002d0c       ??_C@_1M@DHBHFONH@?$AAc?$AAy?$AA?9?$AAg?$AAb?$AA?$AA@ 10046d0c     libcpmt:winapinls.obj
 0002:00002d18       ??_C@_1M@IMGKELGA@?$AAd?$AAa?$AA?9?$AAd?$AAk?$AA?$AA@ 10046d18     libcpmt:winapinls.obj
 0002:00002d24       ??_C@_1M@NNDGDNGA@?$AAd?$AAe?$AA?9?$AAa?$AAt?$AA?$AA@ 10046d24     libcpmt:winapinls.obj
 0002:00002d30       ??_C@_1M@IKDBHEEM@?$AAd?$AAe?$AA?9?$AAc?$AAh?$AA?$AA@ 10046d30     libcpmt:winapinls.obj
 0002:00002d3c       ??_C@_1M@GFFOJMCJ@?$AAd?$AAe?$AA?9?$AAd?$AAe?$AA?$AA@ 10046d3c     libcpmt:winapinls.obj
 0002:00002d48       ??_C@_1M@MDNLKBPM@?$AAd?$AAe?$AA?9?$AAl?$AAi?$AA?$AA@ 10046d48     libcpmt:winapinls.obj
 0002:00002d54       ??_C@_1M@NJBEEJNL@?$AAd?$AAe?$AA?9?$AAl?$AAu?$AA?$AA@ 10046d54     libcpmt:winapinls.obj
 0002:00002d60       ??_C@_1O@GNNELBAP@?$AAd?$AAi?$AAv?$AA?9?$AAm?$AAv?$AA?$AA@ 10046d60     libcpmt:winapinls.obj
 0002:00002d70       ??_C@_1M@EJLEOGAE@?$AAe?$AAl?$AA?9?$AAg?$AAr?$AA?$AA@ 10046d70     libcpmt:winapinls.obj
 0002:00002d7c       ??_C@_1M@GMPONJN@?$AAe?$AAn?$AA?9?$AAa?$AAu?$AA?$AA@ 10046d7c     libcpmt:winapinls.obj
 0002:00002d88       ??_C@_1M@NIDIIPGF@?$AAe?$AAn?$AA?9?$AAb?$AAz?$AA?$AA@ 10046d88     libcpmt:winapinls.obj
 0002:00002d94       ??_C@_1M@JEHMIMFO@?$AAe?$AAn?$AA?9?$AAc?$AAa?$AA?$AA@ 10046d94     libcpmt:winapinls.obj
 0002:00002da0       ??_C@_1M@IGMJCDLA@?$AAe?$AAn?$AA?9?$AAc?$AAb?$AA?$AA@ 10046da0     libcpmt:winapinls.obj
 0002:00002dac       ??_C@_1M@BNFIGBKG@?$AAe?$AAn?$AA?9?$AAg?$AAb?$AA?$AA@ 10046dac     libcpmt:winapinls.obj
 0002:00002db8       ??_C@_1M@LKIFDIGP@?$AAe?$AAn?$AA?9?$AAi?$AAe?$AA?$AA@ 10046db8     libcpmt:winapinls.obj
 0002:00002dc4       ??_C@_1M@PJKFGCCO@?$AAe?$AAn?$AA?9?$AAj?$AAm?$AA?$AA@ 10046dc4     libcpmt:winapinls.obj
 0002:00002dd0       ??_C@_1M@KPPKEPBO@?$AAe?$AAn?$AA?9?$AAn?$AAz?$AA?$AA@ 10046dd0     libcpmt:winapinls.obj
 0002:00002ddc       ??_C@_1M@GMDGLDOB@?$AAe?$AAn?$AA?9?$AAp?$AAh?$AA?$AA@ 10046ddc     libcpmt:winapinls.obj
 0002:00002de8       ??_C@_1M@ONGIBJNA@?$AAe?$AAn?$AA?9?$AAt?$AAt?$AA?$AA@ 10046de8     libcpmt:winapinls.obj
 0002:00002df4       ??_C@_1M@LLODPCMM@?$AAe?$AAn?$AA?9?$AAu?$AAs?$AA?$AA@ 10046df4     libcpmt:winapinls.obj
 0002:00002e00       ??_C@_1M@LAKFNPAN@?$AAe?$AAn?$AA?9?$AAz?$AAa?$AA?$AA@ 10046e00     libcpmt:winapinls.obj
 0002:00002e0c       ??_C@_1M@MFNHNHEO@?$AAe?$AAn?$AA?9?$AAz?$AAw?$AA?$AA@ 10046e0c     libcpmt:winapinls.obj
 0002:00002e18       ??_C@_1M@EJEINPHM@?$AAe?$AAs?$AA?9?$AAa?$AAr?$AA?$AA@ 10046e18     libcpmt:winapinls.obj
 0002:00002e24       ??_C@_1M@GNKPCCJA@?$AAe?$AAs?$AA?9?$AAb?$AAo?$AA?$AA@ 10046e24     libcpmt:winapinls.obj
 0002:00002e30       ??_C@_1M@LEEGFONL@?$AAe?$AAs?$AA?9?$AAc?$AAl?$AA?$AA@ 10046e30     libcpmt:winapinls.obj
 0002:00002e3c       ??_C@_1M@KGPDPBDF@?$AAe?$AAs?$AA?9?$AAc?$AAo?$AA?$AA@ 10046e3c     libcpmt:winapinls.obj
 0002:00002e48       ??_C@_1M@EIAHOHH@?$AAe?$AAs?$AA?9?$AAc?$AAr?$AA?$AA@ 10046e48     libcpmt:winapinls.obj
 0002:00002e54       ??_C@_1M@LLPGMBIN@?$AAe?$AAs?$AA?9?$AAd?$AAo?$AA?$AA@ 10046e54     libcpmt:winapinls.obj
 0002:00002e60       ??_C@_1M@DKHMKNJA@?$AAe?$AAs?$AA?9?$AAe?$AAc?$AA?$AA@ 10046e60     libcpmt:winapinls.obj
 0002:00002e6c       ??_C@_1M@GKGFPKAP@?$AAe?$AAs?$AA?9?$AAe?$AAs?$AA?$AA@ 10046e6c     libcpmt:winapinls.obj
 0002:00002e78       ??_C@_1M@LKHKGDLN@?$AAe?$AAs?$AA?9?$AAg?$AAt?$AA?$AA@ 10046e78     libcpmt:winapinls.obj
 0002:00002e84       ??_C@_1M@HEIIGGJD@?$AAe?$AAs?$AA?9?$AAh?$AAn?$AA?$AA@ 10046e84     libcpmt:winapinls.obj
 0002:00002e90       ??_C@_1M@FBDHPPGD@?$AAe?$AAs?$AA?9?$AAm?$AAx?$AA?$AA@ 10046e90     libcpmt:winapinls.obj
 0002:00002e9c       ??_C@_1M@DPAGLNDH@?$AAe?$AAs?$AA?9?$AAn?$AAi?$AA?$AA@ 10046e9c     libcpmt:winapinls.obj
 0002:00002ea8       ??_C@_1M@MDGOPGDD@?$AAe?$AAs?$AA?9?$AAp?$AAa?$AA?$AA@ 10046ea8     libcpmt:winapinls.obj
 0002:00002eb4       ??_C@_1M@EMAMGBGE@?$AAe?$AAs?$AA?9?$AAp?$AAe?$AA?$AA@ 10046eb4     libcpmt:winapinls.obj
 0002:00002ec0       ??_C@_1M@IBMCAOEC@?$AAe?$AAs?$AA?9?$AAp?$AAr?$AA?$AA@ 10046ec0     libcpmt:winapinls.obj
 0002:00002ecc       ??_C@_1M@FGMDIJED@?$AAe?$AAs?$AA?9?$AAp?$AAy?$AA?$AA@ 10046ecc     libcpmt:winapinls.obj
 0002:00002ed8       ??_C@_1M@IIDEOLLL@?$AAe?$AAs?$AA?9?$AAs?$AAv?$AA?$AA@ 10046ed8     libcpmt:winapinls.obj
 0002:00002ee4       ??_C@_1M@GAOBIPA@?$AAe?$AAs?$AA?9?$AAu?$AAy?$AA?$AA@ 10046ee4     libcpmt:winapinls.obj
 0002:00002ef0       ??_C@_1M@JKFFICHJ@?$AAe?$AAs?$AA?9?$AAv?$AAe?$AA?$AA@ 10046ef0     libcpmt:winapinls.obj
 0002:00002efc       ??_C@_1M@PNMLOJDF@?$AAe?$AAt?$AA?9?$AAe?$AAe?$AA?$AA@ 10046efc     libcpmt:winapinls.obj
 0002:00002f08       ??_C@_1M@GHHLIKEI@?$AAe?$AAu?$AA?9?$AAe?$AAs?$AA?$AA@ 10046f08     libcpmt:winapinls.obj
 0002:00002f14       ??_C@_1M@PBNONODE@?$AAf?$AAa?$AA?9?$AAi?$AAr?$AA?$AA@ 10046f14     libcpmt:winapinls.obj
 0002:00002f20       ??_C@_1M@JEEHPMIL@?$AAf?$AAi?$AA?9?$AAf?$AAi?$AA?$AA@ 10046f20     libcpmt:winapinls.obj
 0002:00002f2c       ??_C@_1M@LMDCNDBA@?$AAf?$AAo?$AA?9?$AAf?$AAo?$AA?$AA@ 10046f2c     libcpmt:winapinls.obj
 0002:00002f38       ??_C@_1M@JKEOHLDK@?$AAf?$AAr?$AA?9?$AAb?$AAe?$AA?$AA@ 10046f38     libcpmt:winapinls.obj
 0002:00002f44       ??_C@_1M@NOHADPMI@?$AAf?$AAr?$AA?9?$AAc?$AAa?$AA?$AA@ 10046f44     libcpmt:winapinls.obj
 0002:00002f50       ??_C@_1M@KDHIHAEC@?$AAf?$AAr?$AA?9?$AAc?$AAh?$AA?$AA@ 10046f50     libcpmt:winapinls.obj
 0002:00002f5c       ??_C@_1M@MMBBFGAK@?$AAf?$AAr?$AA?9?$AAf?$AAr?$AA?$AA@ 10046f5c     libcpmt:winapinls.obj
 0002:00002f68       ??_C@_1M@PAFNENNF@?$AAf?$AAr?$AA?9?$AAl?$AAu?$AA?$AA@ 10046f68     libcpmt:winapinls.obj
 0002:00002f74       ??_C@_1M@EOHDJGDD@?$AAf?$AAr?$AA?9?$AAm?$AAc?$AA?$AA@ 10046f74     libcpmt:winapinls.obj
 0002:00002f80       ??_C@_1M@FAPLLOPF@?$AAg?$AAl?$AA?9?$AAe?$AAs?$AA?$AA@ 10046f80     libcpmt:winapinls.obj
 0002:00002f8c       ??_C@_1M@FOPBFLOO@?$AAg?$AAu?$AA?9?$AAi?$AAn?$AA?$AA@ 10046f8c     libcpmt:winapinls.obj
 0002:00002f98       ??_C@_1M@KBMCINPM@?$AAh?$AAe?$AA?9?$AAi?$AAl?$AA?$AA@ 10046f98     libcpmt:winapinls.obj
 0002:00002fa4       ??_C@_1M@BBPHKFPJ@?$AAh?$AAi?$AA?9?$AAi?$AAn?$AA?$AA@ 10046fa4     libcpmt:winapinls.obj
 0002:00002fb0       ??_C@_1M@PMBNDPHD@?$AAh?$AAr?$AA?9?$AAb?$AAa?$AA?$AA@ 10046fb0     libcpmt:winapinls.obj
 0002:00002fbc       ??_C@_1M@BPCKOEGE@?$AAh?$AAr?$AA?9?$AAh?$AAr?$AA?$AA@ 10046fbc     libcpmt:winapinls.obj
 0002:00002fc8       ??_C@_1M@GACBMHKE@?$AAh?$AAu?$AA?9?$AAh?$AAu?$AA?$AA@ 10046fc8     libcpmt:winapinls.obj
 0002:00002fd4       ??_C@_1M@MILPAJJC@?$AAh?$AAy?$AA?9?$AAa?$AAm?$AA?$AA@ 10046fd4     libcpmt:winapinls.obj
 0002:00002fe0       ??_C@_1M@BABBICEC@?$AAi?$AAd?$AA?9?$AAi?$AAd?$AA?$AA@ 10046fe0     libcpmt:winapinls.obj
 0002:00002fec       ??_C@_1M@BIKNHHPF@?$AAi?$AAs?$AA?9?$AAi?$AAs?$AA?$AA@ 10046fec     libcpmt:winapinls.obj
 0002:00002ff8       ??_C@_1M@NMPCJPHE@?$AAi?$AAt?$AA?9?$AAc?$AAh?$AA?$AA@ 10046ff8     libcpmt:winapinls.obj
 0002:00003004       ??_C@_1M@GHKGFEDF@?$AAi?$AAt?$AA?9?$AAi?$AAt?$AA?$AA@ 10047004     libcpmt:winapinls.obj
 0002:00003010       ??_C@_1M@NIEJCJJA@?$AAj?$AAa?$AA?9?$AAj?$AAp?$AA?$AA@ 10047010     libcpmt:winapinls.obj
 0002:0000301c       ??_C@_1M@JILFNBIM@?$AAk?$AAa?$AA?9?$AAg?$AAe?$AA?$AA@ 1004701c     libcpmt:winapinls.obj
 0002:00003028       ??_C@_1M@PACPMGPH@?$AAk?$AAk?$AA?9?$AAk?$AAz?$AA?$AA@ 10047028     libcpmt:winapinls.obj
 0002:00003034       ??_C@_1M@IELFGMHA@?$AAk?$AAn?$AA?9?$AAi?$AAn?$AA?$AA@ 10047034     libcpmt:winapinls.obj
 0002:00003040       ??_C@_1M@DMHAEOGC@?$AAk?$AAo?$AA?9?$AAk?$AAr?$AA?$AA@ 10047040     libcpmt:winapinls.obj
 0002:0000304c       ??_C@_1O@IBBJHCH@?$AAk?$AAo?$AAk?$AA?9?$AAi?$AAn?$AA?$AA@ 1004704c     libcpmt:winapinls.obj
 0002:0000305c       ??_C@_1M@HBAHBIGA@?$AAk?$AAy?$AA?9?$AAk?$AAg?$AA?$AA@ 1004705c     libcpmt:winapinls.obj
 0002:00003068       ??_C@_1M@KPMILCJG@?$AAl?$AAt?$AA?9?$AAl?$AAt?$AA?$AA@ 10047068     libcpmt:winapinls.obj
 0002:00003074       ??_C@_1M@BDEKKCA@?$AAl?$AAv?$AA?9?$AAl?$AAv?$AA?$AA@ 10047074     libcpmt:winapinls.obj
 0002:00003080       ??_C@_1M@ELCKCCJJ@?$AAm?$AAi?$AA?9?$AAn?$AAz?$AA?$AA@ 10047080     libcpmt:winapinls.obj
 0002:0000308c       ??_C@_1M@CBOOLAPA@?$AAm?$AAk?$AA?9?$AAm?$AAk?$AA?$AA@ 1004708c     libcpmt:winapinls.obj
 0002:00003098       ??_C@_1M@GPHNBJKN@?$AAm?$AAl?$AA?9?$AAi?$AAn?$AA?$AA@ 10047098     libcpmt:winapinls.obj
 0002:000030a4       ??_C@_1M@PABJILIG@?$AAm?$AAn?$AA?9?$AAm?$AAn?$AA?$AA@ 100470a4     libcpmt:winapinls.obj
 0002:000030b0       ??_C@_1M@FGBKKIPG@?$AAm?$AAr?$AA?9?$AAi?$AAn?$AA?$AA@ 100470b0     libcpmt:winapinls.obj
 0002:000030bc       ??_C@_1M@NDBPDDAL@?$AAm?$AAs?$AA?9?$AAb?$AAn?$AA?$AA@ 100470bc     libcpmt:winapinls.obj
 0002:000030c8       ??_C@_1M@OPIHOOPI@?$AAm?$AAs?$AA?9?$AAm?$AAy?$AA?$AA@ 100470c8     libcpmt:winapinls.obj
 0002:000030d4       ??_C@_1M@PPDBCNFM@?$AAm?$AAt?$AA?9?$AAm?$AAt?$AA?$AA@ 100470d4     libcpmt:winapinls.obj
 0002:000030e0       ??_C@_1M@KDJDKMDD@?$AAn?$AAb?$AA?9?$AAn?$AAo?$AA?$AA@ 100470e0     libcpmt:winapinls.obj
 0002:000030ec       ??_C@_1M@KFCFLMJP@?$AAn?$AAl?$AA?9?$AAb?$AAe?$AA?$AA@ 100470ec     libcpmt:winapinls.obj
 0002:000030f8       ??_C@_1M@KPOPDDGO@?$AAn?$AAl?$AA?9?$AAn?$AAl?$AA?$AA@ 100470f8     libcpmt:winapinls.obj
 0002:00003104       ??_C@_1M@LJKPEMLN@?$AAn?$AAn?$AA?9?$AAn?$AAo?$AA?$AA@ 10047104     libcpmt:winapinls.obj
 0002:00003110       ??_C@_1M@BDGHHBFL@?$AAn?$AAs?$AA?9?$AAz?$AAa?$AA?$AA@ 10047110     libcpmt:winapinls.obj
 0002:0000311c       ??_C@_1M@IDEHOAP@?$AAp?$AAa?$AA?9?$AAi?$AAn?$AA?$AA@ 1004711c     libcpmt:winapinls.obj
 0002:00003128       ??_C@_1M@HDBKGOGH@?$AAp?$AAl?$AA?9?$AAp?$AAl?$AA?$AA@ 10047128     libcpmt:winapinls.obj
 0002:00003134       ??_C@_1M@LJLLCMEH@?$AAp?$AAt?$AA?9?$AAb?$AAr?$AA?$AA@ 10047134     libcpmt:winapinls.obj
 0002:00003140       ??_C@_1M@NCMONAAL@?$AAp?$AAt?$AA?9?$AAp?$AAt?$AA?$AA@ 10047140     libcpmt:winapinls.obj
 0002:0000314c       ??_C@_1O@EAKMAJDN@?$AAq?$AAu?$AAz?$AA?9?$AAb?$AAo?$AA?$AA@ 1004714c     libcpmt:winapinls.obj
 0002:0000315c       ??_C@_1O@BHHPIGDN@?$AAq?$AAu?$AAz?$AA?9?$AAe?$AAc?$AA?$AA@ 1004715c     libcpmt:winapinls.obj
 0002:0000316c       ??_C@_1O@GBAPEKMJ@?$AAq?$AAu?$AAz?$AA?9?$AAp?$AAe?$AA?$AA@ 1004716c     libcpmt:winapinls.obj
 0002:0000317c       ??_C@_1M@CLGLEFBO@?$AAr?$AAo?$AA?9?$AAr?$AAo?$AA?$AA@ 1004717c     libcpmt:winapinls.obj
 0002:00003188       ??_C@_1M@CEEDODME@?$AAr?$AAu?$AA?9?$AAr?$AAu?$AA?$AA@ 10047188     libcpmt:winapinls.obj
 0002:00003194       ??_C@_1M@HPKKKMPP@?$AAs?$AAa?$AA?9?$AAi?$AAn?$AA?$AA@ 10047194     libcpmt:winapinls.obj
 0002:000031a0       ??_C@_1M@BKMAIGOJ@?$AAs?$AAe?$AA?9?$AAf?$AAi?$AA?$AA@ 100471a0     libcpmt:winapinls.obj
 0002:000031ac       ??_C@_1M@NDPIFLFI@?$AAs?$AAe?$AA?9?$AAn?$AAo?$AA?$AA@ 100471ac     libcpmt:winapinls.obj
 0002:000031b8       ??_C@_1M@DANKKHJ@?$AAs?$AAe?$AA?9?$AAs?$AAe?$AA?$AA@ 100471b8     libcpmt:winapinls.obj
 0002:000031c4       ??_C@_1M@PNBLONPJ@?$AAs?$AAk?$AA?9?$AAs?$AAk?$AA?$AA@ 100471c4     libcpmt:winapinls.obj
 0002:000031d0       ??_C@_1M@LFMODOAL@?$AAs?$AAl?$AA?9?$AAs?$AAi?$AA?$AA@ 100471d0     libcpmt:winapinls.obj
 0002:000031dc       ??_C@_1O@DFKOMPG@?$AAs?$AAm?$AAa?$AA?9?$AAn?$AAo?$AA?$AA@ 100471dc     libcpmt:winapinls.obj
 0002:000031ec       ??_C@_1O@NDKPBNNH@?$AAs?$AAm?$AAa?$AA?9?$AAs?$AAe?$AA?$AA@ 100471ec     libcpmt:winapinls.obj
 0002:000031fc       ??_C@_1O@PLLKBHAB@?$AAs?$AAm?$AAj?$AA?9?$AAn?$AAo?$AA?$AA@ 100471fc     libcpmt:winapinls.obj
 0002:0000320c       ??_C@_1O@CLEPOGCA@?$AAs?$AAm?$AAj?$AA?9?$AAs?$AAe?$AA?$AA@ 1004720c     libcpmt:winapinls.obj
 0002:0000321c       ??_C@_1O@DLGJGKMK@?$AAs?$AAm?$AAn?$AA?9?$AAf?$AAi?$AA?$AA@ 1004721c     libcpmt:winapinls.obj
 0002:0000322c       ??_C@_1O@OJDJGAJC@?$AAs?$AAm?$AAs?$AA?9?$AAf?$AAi?$AA?$AA@ 1004722c     libcpmt:winapinls.obj
 0002:0000323c       ??_C@_1M@BOFOGHPB@?$AAs?$AAq?$AA?9?$AAa?$AAl?$AA?$AA@ 1004723c     libcpmt:winapinls.obj
 0002:00003248       ??_C@_1BG@LJBBIPGB@?$AAs?$AAr?$AA?9?$AAb?$AAa?$AA?9?$AAc?$AAy?$AAr?$AAl?$AA?$AA@ 10047248     libcpmt:winapinls.obj
 0002:00003260       ??_C@_1BG@JLBENFOE@?$AAs?$AAr?$AA?9?$AAb?$AAa?$AA?9?$AAl?$AAa?$AAt?$AAn?$AA?$AA@ 10047260     libcpmt:winapinls.obj
 0002:00003278       ??_C@_1BG@KODPNHE@?$AAs?$AAr?$AA?9?$AAs?$AAp?$AA?9?$AAc?$AAy?$AAr?$AAl?$AA?$AA@ 10047278     libcpmt:winapinls.obj
 0002:00003290       ??_C@_1BG@CIOGKHPB@?$AAs?$AAr?$AA?9?$AAs?$AAp?$AA?9?$AAl?$AAa?$AAt?$AAn?$AA?$AA@ 10047290     libcpmt:winapinls.obj
 0002:000032a8       ??_C@_1M@NGFJLMAC@?$AAs?$AAv?$AA?9?$AAf?$AAi?$AA?$AA@ 100472a8     libcpmt:winapinls.obj
 0002:000032b4       ??_C@_1M@MPJEJAJC@?$AAs?$AAv?$AA?9?$AAs?$AAe?$AA?$AA@ 100472b4     libcpmt:winapinls.obj
 0002:000032c0       ??_C@_1M@MPNDHLFK@?$AAs?$AAw?$AA?9?$AAk?$AAe?$AA?$AA@ 100472c0     libcpmt:winapinls.obj
 0002:000032cc       ??_C@_1O@KOHBJJI@?$AAs?$AAy?$AAr?$AA?9?$AAs?$AAy?$AA?$AA@ 100472cc     libcpmt:winapinls.obj
 0002:000032dc       ??_C@_1M@LDCEFHA@?$AAt?$AAa?$AA?9?$AAi?$AAn?$AA?$AA@ 100472dc     libcpmt:winapinls.obj
 0002:000032e8       ??_C@_1M@CNJOFAK@?$AAt?$AAe?$AA?9?$AAi?$AAn?$AA?$AA@ 100472e8     libcpmt:winapinls.obj
 0002:000032f4       ??_C@_1M@GNAECACD@?$AAt?$AAh?$AA?9?$AAt?$AAh?$AA?$AA@ 100472f4     libcpmt:winapinls.obj
 0002:00003300       ??_C@_1M@CHBIHOJO@?$AAt?$AAn?$AA?9?$AAz?$AAa?$AA?$AA@ 10047300     libcpmt:winapinls.obj
 0002:0000330c       ??_C@_1M@GCCMIGPJ@?$AAt?$AAr?$AA?9?$AAt?$AAr?$AA?$AA@ 1004730c     libcpmt:winapinls.obj
 0002:00003318       ??_C@_1M@CELMCNBK@?$AAt?$AAt?$AA?9?$AAr?$AAu?$AA?$AA@ 10047318     libcpmt:winapinls.obj
 0002:00003324       ??_C@_1M@KLMCELGA@?$AAu?$AAk?$AA?9?$AAu?$AAa?$AA?$AA@ 10047324     libcpmt:winapinls.obj
 0002:00003330       ??_C@_1M@EPAJJAJF@?$AAu?$AAr?$AA?9?$AAp?$AAk?$AA?$AA@ 10047330     libcpmt:winapinls.obj
 0002:0000333c       ??_C@_1BG@GEGPMCDJ@?$AAu?$AAz?$AA?9?$AAu?$AAz?$AA?9?$AAc?$AAy?$AAr?$AAl?$AA?$AA@ 1004733c     libcpmt:winapinls.obj
 0002:00003354       ??_C@_1BG@EGGKJILM@?$AAu?$AAz?$AA?9?$AAu?$AAz?$AA?9?$AAl?$AAa?$AAt?$AAn?$AA?$AA@ 10047354     libcpmt:winapinls.obj
 0002:0000336c       ??_C@_1M@GFOCLFF@?$AAv?$AAi?$AA?9?$AAv?$AAn?$AA?$AA@ 1004736c     libcpmt:winapinls.obj
 0002:00003378       ??_C@_1M@CPAMEDFI@?$AAx?$AAh?$AA?9?$AAz?$AAa?$AA?$AA@ 10047378     libcpmt:winapinls.obj
 0002:00003384       ??_C@_1O@EBKIFIGN@?$AAz?$AAh?$AA?9?$AAc?$AAh?$AAs?$AA?$AA@ 10047384     libcpmt:winapinls.obj
 0002:00003394       ??_C@_1O@NMHPGANE@?$AAz?$AAh?$AA?9?$AAc?$AAh?$AAt?$AA?$AA@ 10047394     libcpmt:winapinls.obj
 0002:000033a4       ??_C@_1M@LPINJOMC@?$AAz?$AAh?$AA?9?$AAc?$AAn?$AA?$AA@ 100473a4     libcpmt:winapinls.obj
 0002:000033b0       ??_C@_1M@OCJEJODD@?$AAz?$AAh?$AA?9?$AAh?$AAk?$AA?$AA@ 100473b0     libcpmt:winapinls.obj
 0002:000033bc       ??_C@_1M@DNDLJINH@?$AAz?$AAh?$AA?9?$AAm?$AAo?$AA?$AA@ 100473bc     libcpmt:winapinls.obj
 0002:000033c8       ??_C@_1M@MBFDNDND@?$AAz?$AAh?$AA?9?$AAs?$AAg?$AA?$AA@ 100473c8     libcpmt:winapinls.obj
 0002:000033d4       ??_C@_1M@IMEPLEPE@?$AAz?$AAh?$AA?9?$AAt?$AAw?$AA?$AA@ 100473d4     libcpmt:winapinls.obj
 0002:000033e0       ??_C@_1M@BBGHNHJP@?$AAz?$AAu?$AA?9?$AAz?$AAa?$AA?$AA@ 100473e0     libcpmt:winapinls.obj
 0002:0000348c       __pRawDllMain              1004748c     LIBCMT:dll_dllmain.obj
 0002:0000348c       __pDefaultRawDllMain       1004748c     LIBCMT:dll_dllmain.obj
 0002:0000349c       ??_7type_info@@6B@         1004749c     LIBCMT:std_type_info_static.obj
 0002:000034a4       ??_7bad_array_new_length@std@@6B@ 100474a4     LIBCMT:throw_bad_alloc.obj
 0002:000034ac       ??_C@_0BF@KINCDENJ@bad?5array?5new?5length?$AA@ 100474ac     LIBCMT:throw_bad_alloc.obj
 0002:000034e4       __pDestructExceptionObject 100474e4     libvcruntime:frame.obj
 0002:000034ec       ??_7bad_exception@std@@6B@ 100474ec     libvcruntime:frame.obj
 0002:000034f4       ??_C@_0O@DPKOEFFH@bad?5exception?$AA@ 100474f4     libvcruntime:frame.obj
 0002:00003514       ??_C@_1BC@DNHGCMLG@?$AAa?$AAd?$AAv?$AAa?$AAp?$AAi?$AA3?$AA2?$AA?$AA@ 10047514     libvcruntime:winapi_downlevel.obj
 0002:00003528       ??_C@_1DM@KHCHBNEB@?$AAa?$AAp?$AAi?$AA?9?$AAm?$AAs?$AA?9?$AAw?$AAi?$AAn?$AA?9?$AAc?$AAo?$AAr?$AAe?$AA?9?$AAf?$AAi?$AAb?$AAe?$AAr?$AAs?$AA?9?$AAl?$AA1?$AA?9?$AA1?$AA?9?$AA1?$AA?$AA@ 10047528     libvcruntime:winapi_downlevel.obj
 0002:00003564       ??_C@_1DK@LPPGFMPP@?$AAa?$AAp?$AAi?$AA?9?$AAm?$AAs?$AA?9?$AAw?$AAi?$AAn?$AA?9?$AAc?$AAo?$AAr?$AAe?$AA?9?$AAs?$AAy?$AAn?$AAc?$AAh?$AA?9?$AAl?$AA1?$AA?9?$AA2?$AA?9?$AA0?$AA?$AA@ 10047564     libvcruntime:winapi_downlevel.obj
 0002:000035a0       ??_C@_1BC@GDMECMAK@?$AAk?$AAe?$AAr?$AAn?$AAe?$AAl?$AA3?$AA2?$AA?$AA@ 100475a0     libvcruntime:winapi_downlevel.obj
 0002:00003770       ??_C@_08EHJDFFNH@__based?$CI?$AA@ 10047770     libvcruntime:undname.obj
 0002:0000377c       ??_C@_07KOLFKCDI@__cdecl?$AA@ 1004777c     libvcruntime:undname.obj
 0002:00003784       ??_C@_08GHMPAG@__pascal?$AA@ 10047784     libvcruntime:undname.obj
 0002:00003790       ??_C@_09IFJBGAPI@__stdcall?$AA@ 10047790     libvcruntime:undname.obj
 0002:0000379c       ??_C@_0L@NPHFGOKO@__thiscall?$AA@ 1004779c     libvcruntime:undname.obj
 0002:000037a8       ??_C@_0L@JMKHOMEK@__fastcall?$AA@ 100477a8     libvcruntime:undname.obj
 0002:000037b4       ??_C@_0N@BCKKPABJ@__vectorcall?$AA@ 100477b4     libvcruntime:undname.obj
 0002:000037c4       ??_C@_09HIJEGCPM@__clrcall?$AA@ 100477c4     libvcruntime:undname.obj
 0002:000037d0       ??_C@_06GHPCKEAG@__eabi?$AA@ 100477d0     libvcruntime:undname.obj
 0002:000037d8       ??_C@_07JOMMBBKO@__ptr64?$AA@ 100477d8     libvcruntime:undname.obj
 0002:000037e0       ??_C@_0L@PILCLIHE@__restrict?$AA@ 100477e0     libvcruntime:undname.obj
 0002:000037ec       ??_C@_0M@GFIIJFMG@__unaligned?$AA@ 100477ec     libvcruntime:undname.obj
 0002:000037f8       ??_C@_09DHDLOLLB@restrict?$CI?$AA@ 100477f8     libvcruntime:undname.obj
 0002:00003804       ??_C@_04NIHEBCM@?5new?$AA@ 10047804     libvcruntime:undname.obj
 0002:0000380c       ??_C@_07FPCDHGMM@?5delete?$AA@ 1004780c     libvcruntime:undname.obj
 0002:00003814       ??_C@_01NEMOKFLO@?$DN?$AA@ 10047814     libvcruntime:undname.obj
 0002:00003818       ??_C@_02GPIOPFAK@?$DO?$DO?$AA@ 10047818     libvcruntime:undname.obj
 0002:0000381c       ??_C@_02FODMEDOG@?$DM?$DM?$AA@ 1004781c     libvcruntime:undname.obj
 0002:00003820       ??_C@_01DCLJPIOD@?$CB?$AA@ 10047820     libvcruntime:undname.obj
 0002:00003824       ??_C@_02EGOFBIJA@?$DN?$DN?$AA@ 10047824     libvcruntime:undname.obj
 0002:00003828       ??_C@_02FDNJECIE@?$CB?$DN?$AA@ 10047828     libvcruntime:undname.obj
 0002:0000382c       ??_C@_02GPECMEKF@?$FL?$FN?$AA@ 1004782c     libvcruntime:undname.obj
 0002:00003830       ??_C@_08LHJFAFGD@operator?$AA@ 10047830     libvcruntime:undname.obj
 0002:0000383c       ??_C@_02HBOOOICD@?9?$DO?$AA@ 1004783c     libvcruntime:undname.obj
 0002:00003840       ??_C@_02ECNGHCIF@?$CL?$CL?$AA@ 10047840     libvcruntime:undname.obj
 0002:00003844       ??_C@_02BAABKJLB@?9?9?$AA@ 10047844     libvcruntime:undname.obj
 0002:00003848       ??_C@_03MNHNFDLC@?9?$DO?$CK?$AA@ 10047848     libvcruntime:undname.obj
 0002:0000384c       ??_C@_01KMDKNFGN@?1?$AA@   1004784c     libvcruntime:undname.obj
 0002:00003850       ??_C@_01FGNFDNOH@?$CF?$AA@ 10047850     libvcruntime:undname.obj
 0002:00003854       ??_C@_02EHCHHCKH@?$DM?$DN?$AA@ 10047854     libvcruntime:undname.obj
 0002:00003858       ??_C@_01PPODPGHN@?$DO?$AA@ 10047858     libvcruntime:undname.obj
 0002:0000385c       ??_C@_02EEKDKGMJ@?$DO?$DN?$AA@ 1004785c     libvcruntime:undname.obj
 0002:00003860       ??_C@_01IHBHIGKO@?0?$AA@   10047860     libvcruntime:undname.obj
 0002:00003864       ??_C@_02HCKGKOFO@?$CI?$CJ?$AA@ 10047864     libvcruntime:undname.obj
 0002:00003868       ??_C@_01PJKLJHI@?$HO?$AA@  10047868     libvcruntime:undname.obj
 0002:0000386c       ??_C@_01JKBOJNNK@?$FO?$AA@ 1004786c     libvcruntime:undname.obj
 0002:00003870       ??_C@_01DNKMNLPK@?$HM?$AA@ 10047870     libvcruntime:undname.obj
 0002:00003874       ??_C@_02PPKAJPJL@?$CG?$CG?$AA@ 10047874     libvcruntime:undname.obj
 0002:00003878       ??_C@_02NONPIBCD@?$HM?$HM?$AA@ 10047878     libvcruntime:undname.obj
 0002:0000387c       ??_C@_02FPIMKNGF@?$CK?$DN?$AA@ 1004787c     libvcruntime:undname.obj
 0002:00003880       ??_C@_02FOEOMHFC@?$CL?$DN?$AA@ 10047880     libvcruntime:undname.obj
 0002:00003884       ??_C@_02FKMDLLOA@?9?$DN?$AA@ 10047884     libvcruntime:undname.obj
 0002:00003888       ??_C@_02FJEHGPIO@?1?$DN?$AA@ 10047888     libvcruntime:undname.obj
 0002:0000388c       ??_C@_02FENAOKFI@?$CF?$DN?$AA@ 1004788c     libvcruntime:undname.obj
 0002:00003890       ??_C@_03IKFCCPFF@?$DO?$DO?$DN?$AA@ 10047890     libvcruntime:undname.obj
 0002:00003894       ??_C@_03CDNPDDLA@?$DM?$DM?$DN?$AA@ 10047894     libvcruntime:undname.obj
 0002:00003898       ??_C@_02FGJGFEAB@?$CG?$DN?$AA@ 10047898     libvcruntime:undname.obj
 0002:0000389c       ??_C@_02DHLNPPGH@?$HM?$DN?$AA@ 1004789c     libvcruntime:undname.obj
 0002:000038a0       ??_C@_02MHEGNOJ@?$FO?$DN?$AA@ 100478a0     libvcruntime:undname.obj
 0002:000038a4       ??_C@_09IFPLHPGF@?$GAvftable?8?$AA@ 100478a4     libvcruntime:undname.obj
 0002:000038b0       ??_C@_09BLBHBJP@?$GAvbtable?8?$AA@ 100478b0     libvcruntime:undname.obj
 0002:000038bc       ??_C@_07FEEIOKP@?$GAvcall?8?$AA@ 100478bc     libvcruntime:undname.obj
 0002:000038c4       ??_C@_08LLFFHHDJ@?$GAtypeof?8?$AA@ 100478c4     libvcruntime:undname.obj
 0002:000038d0       ??_C@_0BF@KDPPACIK@?$GAlocal?5static?5guard?8?$AA@ 100478d0     libvcruntime:undname.obj
 0002:000038e8       ??_C@_08OBABFOLI@?$GAstring?8?$AA@ 100478e8     libvcruntime:undname.obj
 0002:000038f4       ??_C@_0BD@JDLKDPAB@?$GAvbase?5destructor?8?$AA@ 100478f4     libvcruntime:undname.obj
 0002:00003908       ??_C@_0BN@DEGPLNFK@?$GAvector?5deleting?5destructor?8?$AA@ 10047908     libvcruntime:undname.obj
 0002:00003928       ??_C@_0BO@OBMKPJIG@?$GAdefault?5constructor?5closure?8?$AA@ 10047928     libvcruntime:undname.obj
 0002:00003948       ??_C@_0BN@IMDCHIKM@?$GAscalar?5deleting?5destructor?8?$AA@ 10047948     libvcruntime:undname.obj
 0002:00003968       ??_C@_0BO@PFGOCPJJ@?$GAvector?5constructor?5iterator?8?$AA@ 10047968     libvcruntime:undname.obj
 0002:00003988       ??_C@_0BN@LFPFMEDL@?$GAvector?5destructor?5iterator?8?$AA@ 10047988     libvcruntime:undname.obj
 0002:000039a8       ??_C@_0CE@IKBNEHA@?$GAvector?5vbase?5constructor?5iterat@ 100479a8     libvcruntime:undname.obj
 0002:000039cc       ??_C@_0BL@NILFHHPC@?$GAvirtual?5displacement?5map?8?$AA@ 100479cc     libvcruntime:undname.obj
 0002:000039e8       ??_C@_0CB@JONCMFFK@?$GAeh?5vector?5constructor?5iterator?8@ 100479e8     libvcruntime:undname.obj
 0002:00003a0c       ??_C@_0CA@GCEOPDGL@?$GAeh?5vector?5destructor?5iterator?8?$AA@ 10047a0c     libvcruntime:undname.obj
 0002:00003a2c       ??_C@_0CH@OOJPLCPH@?$GAeh?5vector?5vbase?5constructor?5ite@ 10047a2c     libvcruntime:undname.obj
 0002:00003a54       ??_C@_0BL@LLKPOHJI@?$GAcopy?5constructor?5closure?8?$AA@ 10047a54     libvcruntime:undname.obj
 0002:00003a70       ??_C@_0BA@KBCDOMBN@?$GAudt?5returning?8?$AA@ 10047a70     libvcruntime:undname.obj
 0002:00003a80       ??_C@_03KLGMFNMG@?$GAEH?$AA@ 10047a80     libvcruntime:undname.obj
 0002:00003a84       ??_C@_05KHLCHHI@?$GARTTI?$AA@ 10047a84     libvcruntime:undname.obj
 0002:00003a8c       ??_C@_0BA@KKLDJDLB@?$GAlocal?5vftable?8?$AA@ 10047a8c     libvcruntime:undname.obj
 0002:00003a9c       ??_C@_0CE@IIHCMGGL@?$GAlocal?5vftable?5constructor?5closu@ 10047a9c     libvcruntime:undname.obj
 0002:00003ac0       ??_C@_06FHBGPFGH@?5new?$FL?$FN?$AA@ 10047ac0     libvcruntime:undname.obj
 0002:00003ac8       ??_C@_09LBNFPBCA@?5delete?$FL?$FN?$AA@ 10047ac8     libvcruntime:undname.obj
 0002:00003ad4       ??_C@_0P@HJKNJFNN@?$GAomni?5callsig?8?$AA@ 10047ad4     libvcruntime:undname.obj
 0002:00003ae4       ??_C@_0BL@CNOONJFP@?$GAplacement?5delete?5closure?8?$AA@ 10047ae4     libvcruntime:undname.obj
 0002:00003b00       ??_C@_0BN@CKNJLHMB@?$GAplacement?5delete?$FL?$FN?5closure?8?$AA@ 10047b00     libvcruntime:undname.obj
 0002:00003b20       ??_C@_0CG@CFDHKGGD@?$GAmanaged?5vector?5constructor?5iter@ 10047b20     libvcruntime:undname.obj
 0002:00003b48       ??_C@_0CF@IMGKMJNO@?$GAmanaged?5vector?5destructor?5itera@ 10047b48     libvcruntime:undname.obj
 0002:00003b70       ??_C@_0CG@HLDDJMAG@?$GAeh?5vector?5copy?5constructor?5iter@ 10047b70     libvcruntime:undname.obj
 0002:00003b98       ??_C@_0CM@FCBBDIGB@?$GAeh?5vector?5vbase?5copy?5constructo@ 10047b98     libvcruntime:undname.obj
 0002:00003bc4       ??_C@_0BL@CLIPGLGB@?$GAdynamic?5initializer?5for?5?8?$AA@ 10047bc4     libvcruntime:undname.obj
 0002:00003be0       ??_C@_0CB@PDBIFEP@?$GAdynamic?5atexit?5destructor?5for?5?8@ 10047be0     libvcruntime:undname.obj
 0002:00003c04       ??_C@_0CD@CGAJBKEJ@?$GAvector?5copy?5constructor?5iterato@ 10047c04     libvcruntime:undname.obj
 0002:00003c28       ??_C@_0CJ@GJELGAMM@?$GAvector?5vbase?5copy?5constructor?5i@ 10047c28     libvcruntime:undname.obj
 0002:00003c54       ??_C@_0CL@FGIJHLCE@?$GAmanaged?5vector?5copy?5constructor@ 10047c54     libvcruntime:undname.obj
 0002:00003c80       ??_C@_0BM@PMGGMLDN@?$GAlocal?5static?5thread?5guard?8?$AA@ 10047c80     libvcruntime:undname.obj
 0002:00003c9c       ??_C@_0N@BDNMDMOL@operator?5?$CC?$CC?5?$AA@ 10047c9c     libvcruntime:undname.obj
 0002:00003cac       ??_C@_0BC@DAFEJGAK@?5Type?5Descriptor?8?$AA@ 10047cac     libvcruntime:undname.obj
 0002:00003cc0       ??_C@_0BM@LDKODKLH@?5Base?5Class?5Descriptor?5at?5?$CI?$AA@ 10047cc0     libvcruntime:undname.obj
 0002:00003cdc       ??_C@_0BD@LGICGFMM@?5Base?5Class?5Array?8?$AA@ 10047cdc     libvcruntime:undname.obj
 0002:00003cf0       ??_C@_0BN@MECKDCOJ@?5Class?5Hierarchy?5Descriptor?8?$AA@ 10047cf0     libvcruntime:undname.obj
 0002:00003d10       ??_C@_0BK@CFCOFLF@?5Complete?5Object?5Locator?8?$AA@ 10047d10     libvcruntime:undname.obj
 0002:00003d30       ??_C@_1EK@MBDPDCGA@?$AAM?$AAi?$AAc?$AAr?$AAo?$AAs?$AAo?$AAf?$AAt?$AA?5?$AAV?$AAi?$AAs?$AAu?$AAa?$AAl?$AA?5?$AAC?$AA?$CL?$AA?$CL?$AA?5?$AAR?$AAu?$AAn?$AAt?$AAi?$AAm?$AAe?$AA?5?$AAL?$AAi?$AAb@ 10047d30     libucrt:assert.obj
 0002:00003d80       ??_C@_1FE@LHBLIKM@?$AAA?$AAs?$AAs?$AAe?$AAr?$AAt?$AAi?$AAo?$AAn?$AA?5?$AAf?$AAa?$AAi?$AAl?$AAe?$AAd?$AA?3?$AA?5?$AA?$CF?$AAT?$AAs?$AA?0?$AA?5?$AAf?$AAi?$AAl?$AAe?$AA?5?$AA?$CF?$AAT?$AAs?$AA?0@ 10047d80     libucrt:assert.obj
 0002:00003dd4       ??_C@_1CE@OJBNHDMO@?$AAA?$AAs?$AAs?$AAe?$AAr?$AAt?$AAi?$AAo?$AAn?$AA?5?$AAf?$AAa?$AAi?$AAl?$AAe?$AAd?$AA?$CB?$AA?$AA@ 10047dd4     libucrt:assert.obj
 0002:00003df8       ??_C@_1BE@PHKBBGE@?$AAP?$AAr?$AAo?$AAg?$AAr?$AAa?$AAm?$AA?3?$AA?5?$AA?$AA@ 10047df8     libucrt:assert.obj
 0002:00003e0c       ??_C@_1O@HEMHKNDC@?$AAF?$AAi?$AAl?$AAe?$AA?3?$AA?5?$AA?$AA@ 10047e0c     libucrt:assert.obj
 0002:00003e1c       ??_C@_1O@KCAFKHJE@?$AAL?$AAi?$AAn?$AAe?$AA?3?$AA?5?$AA?$AA@ 10047e1c     libucrt:assert.obj
 0002:00003e2c       ??_C@_1BK@PEDCIPMA@?$AAE?$AAx?$AAp?$AAr?$AAe?$AAs?$AAs?$AAi?$AAo?$AAn?$AA?3?$AA?5?$AA?$AA@ 10047e2c     libucrt:assert.obj
 0002:00003e48       ??_C@_1OA@EGMLFBHJ@?$AAF?$AAo?$AAr?$AA?5?$AAi?$AAn?$AAf?$AAo?$AAr?$AAm?$AAa?$AAt?$AAi?$AAo?$AAn?$AA?5?$AAo?$AAn?$AA?5?$AAh?$AAo?$AAw?$AA?5?$AAy?$AAo?$AAu?$AAr?$AA?5?$AAp?$AAr?$AAo?$AAg@ 10047e48     libucrt:assert.obj
 0002:00003f28       ??_C@_1HK@POCJMFGK@?$AA?$CI?$AAP?$AAr?$AAe?$AAs?$AAs?$AA?5?$AAR?$AAe?$AAt?$AAr?$AAy?$AA?5?$AAt?$AAo?$AA?5?$AAd?$AAe?$AAb?$AAu?$AAg?$AA?5?$AAt?$AAh?$AAe?$AA?5?$AAa?$AAp?$AAp?$AAl?$AAi?$AAc@ 10047f28     libucrt:assert.obj
 0002:00003fa4       ??_C@_17LGKOMLJ@?$AA?4?$AA?4?$AA?4?$AA?$AA@ 10047fa4     libucrt:assert.obj
 0002:00003fac       ??_C@_13LBAGMAIH@?$AA?6?$AA?$AA@ 10047fac     libucrt:assert.obj
 0002:00003fb0       ??_C@_15IABLJNFO@?$AA?6?$AA?6?$AA?$AA@ 10047fb0     libucrt:assert.obj
 0002:00003fb8       ??_C@_1CO@EAEJAADC@?$AA?$DM?$AAp?$AAr?$AAo?$AAg?$AAr?$AAa?$AAm?$AA?5?$AAn?$AAa?$AAm?$AAe?$AA?5?$AAu?$AAn?$AAk?$AAn?$AAo?$AAw?$AAn?$AA?$DO?$AA?$AA@ 10047fb8     libucrt:assert.obj
 0002:00003fe8       _standard_lookup_table     10047fe8     libucrt:output.obj
 0002:00004044       ??_C@_06OJHGLDPL@?$CInull?$CJ?$AA@ 10048044     libucrt:output.obj
 0002:0000404c       ??_C@_1O@CEDCILHN@?$AA?$CI?$AAn?$AAu?$AAl?$AAl?$AA?$CJ?$AA?$AA@ 1004804c     libucrt:output.obj
 0002:000041c8       __wctype                   100481c8     libucrt:ctype.obj
 0002:000043d0       ___newctype                100483d0     libucrt:ctype.obj
 0002:000046d0       ___newclmap                100486d0     libucrt:ctype.obj
 0002:00004850       ___newcumap                10048850     libucrt:ctype.obj
 0002:000049d0       ?large_power_data@?1??multiply_by_power_of_ten@__crt_strtox@@YA_NAAUbig_integer@2@I@Z@4QBIB 100489d0     libucrt:strtod.obj
 0002:000052d8       ?large_power_indices@?1??multiply_by_power_of_ten@__crt_strtox@@YA_NAAUbig_integer@2@I@Z@4QBUunpack_index@?1??12@YA_N0I@Z@B 100492d8     libucrt:strtod.obj
 0002:00005370       ?small_powers_of_ten@?6??multiply_by_power_of_ten@__crt_strtox@@YA_NAAUbig_integer@2@I@Z@4QBIB 10049370     libucrt:strtod.obj
 0002:000053a4       __half                     100493a4     libucrt:pow.obj
 0002:000053b0       ___acrt_exception_action_table 100493b0     libucrt:exception_filter.obj
 0002:00005440       ___acrt_signal_action_table_count 10049440     libucrt:exception_filter.obj
 0002:00005444       ___acrt_signal_action_first_fpe_index 10049444     libucrt:exception_filter.obj
 0002:00005448       ___acrt_signal_action_fpe_count 10049448     libucrt:exception_filter.obj
 0002:0000544c       ??_C@_1BI@BGOHAHKC@?$AAm?$AAs?$AAc?$AAo?$AAr?$AAe?$AAe?$AA?4?$AAd?$AAl?$AAl?$AA?$AA@ 1004944c     libucrt:exit.obj
 0002:00005464       ??_C@_0P@MIGLKIOC@CorExitProcess?$AA@ 10049464     libucrt:exit.obj
 0002:000054f0       ___lc_category             100494f0     libucrt:wsetlocale.obj
 0002:00005538       ??_C@_1O@GIFLHMA@?$AAL?$AAC?$AA_?$AAA?$AAL?$AAL?$AA?$AA@ 10049538     libucrt:wsetlocale.obj
 0002:00005548       ??_C@_1BG@PPOMIBNJ@?$AAL?$AAC?$AA_?$AAC?$AAO?$AAL?$AAL?$AAA?$AAT?$AAE?$AA?$AA@ 10049548     libucrt:wsetlocale.obj
 0002:00005560       ??_C@_1BC@FFJGAPJM@?$AAL?$AAC?$AA_?$AAC?$AAT?$AAY?$AAP?$AAE?$AA?$AA@ 10049560     libucrt:wsetlocale.obj
 0002:00005574       ??_C@_1BI@PCKFNJFB@?$AAL?$AAC?$AA_?$AAM?$AAO?$AAN?$AAE?$AAT?$AAA?$AAR?$AAY?$AA?$AA@ 10049574     libucrt:wsetlocale.obj
 0002:0000558c       ??_C@_1BG@ENIEDKID@?$AAL?$AAC?$AA_?$AAN?$AAU?$AAM?$AAE?$AAR?$AAI?$AAC?$AA?$AA@ 1004958c     libucrt:wsetlocale.obj
 0002:000055a4       ??_C@_1BA@HAAOMIIG@?$AAL?$AAC?$AA_?$AAT?$AAI?$AAM?$AAE?$AA?$AA@ 100495a4     libucrt:wsetlocale.obj
 0002:00005638       ??_C@_15NBPDDFIP@?$AA?$DN?$AA?$DL?$AA?$AA@ 10049638     libucrt:wsetlocale.obj
 0002:00005640       ??_C@_13PJJBFPED@?$AA?$DL?$AA?$AA@ 10049640     libucrt:wsetlocale.obj
 0002:00005644       ??_C@_13NMPKAAJP@?$AA?$DN?$AA?$AA@ 10049644     libucrt:wsetlocale.obj
 0002:00005648       ??_C@_13FHBKNHDA@?$AAC?$AA?$AA@ 10049648     libucrt:wsetlocale.obj
 0002:0000564c       ??_C@_17MBJJLFDM@?$AA_?$AA?4?$AA?0?$AA?$AA@ 1004964c     libucrt:wsetlocale.obj
 0002:00005654       ??_C@_13ENNFDPBH@?$AA_?$AA?$AA@ 10049654     libucrt:wsetlocale.obj
 0002:00005658       ??_C@_13JOFGPIOO@?$AA?4?$AA?$AA@ 10049658     libucrt:wsetlocale.obj
 0002:0000565c       ??_C@_03KOEHGMDN@Sun?$AA@  1004965c     libucrt:nlsdata.obj
 0002:00005660       ??_C@_03PDAGKDH@Mon?$AA@   10049660     libucrt:nlsdata.obj
 0002:00005664       ??_C@_03NAGEINEP@Tue?$AA@  10049664     libucrt:nlsdata.obj
 0002:00005668       ??_C@_03MHOMLAJA@Wed?$AA@  10049668     libucrt:nlsdata.obj
 0002:0000566c       ??_C@_03IOFIKPDN@Thu?$AA@  1004966c     libucrt:nlsdata.obj
 0002:00005670       ??_C@_03IDIOELNC@Fri?$AA@  10049670     libucrt:nlsdata.obj
 0002:00005674       ??_C@_03FEFJNEK@Sat?$AA@   10049674     libucrt:nlsdata.obj
 0002:00005678       ??_C@_06OOPIFAJ@Sunday?$AA@ 10049678     libucrt:nlsdata.obj
 0002:00005680       ??_C@_06JLEDEDGH@Monday?$AA@ 10049680     libucrt:nlsdata.obj
 0002:00005688       ??_C@_07BAAGCFCM@Tuesday?$AA@ 10049688     libucrt:nlsdata.obj
 0002:00005690       ??_C@_09DLIGFAKA@Wednesday?$AA@ 10049690     libucrt:nlsdata.obj
 0002:0000569c       ??_C@_08HACCIKIA@Thursday?$AA@ 1004969c     libucrt:nlsdata.obj
 0002:000056a8       ??_C@_06JECMNKMI@Friday?$AA@ 100496a8     libucrt:nlsdata.obj
 0002:000056b0       ??_C@_08INBOOONO@Saturday?$AA@ 100496b0     libucrt:nlsdata.obj
 0002:000056bc       ??_C@_03JIHJHPIE@Jan?$AA@  100496bc     libucrt:nlsdata.obj
 0002:000056c0       ??_C@_03HJBDCHOM@Feb?$AA@  100496c0     libucrt:nlsdata.obj
 0002:000056c4       ??_C@_03ODNJBKGA@Mar?$AA@  100496c4     libucrt:nlsdata.obj
 0002:000056c8       ??_C@_03LEOLGMJP@Apr?$AA@  100496c8     libucrt:nlsdata.obj
 0002:000056cc       ??_C@_03CNMDKL@May?$AA@    100496cc     libucrt:nlsdata.obj
 0002:000056d0       ??_C@_03IDFGHECI@Jun?$AA@  100496d0     libucrt:nlsdata.obj
 0002:000056d4       ??_C@_03LBGABGKK@Jul?$AA@  100496d4     libucrt:nlsdata.obj
 0002:000056d8       ??_C@_03IFJFEIGA@Aug?$AA@  100496d8     libucrt:nlsdata.obj
 0002:000056dc       ??_C@_03GGCAPAJC@Sep?$AA@  100496dc     libucrt:nlsdata.obj
 0002:000056e0       ??_C@_03BMAOKBAD@Oct?$AA@  100496e0     libucrt:nlsdata.obj
 0002:000056e4       ??_C@_03JPJOFNIA@Nov?$AA@  100496e4     libucrt:nlsdata.obj
 0002:000056e8       ??_C@_03MKABNOCG@Dec?$AA@  100496e8     libucrt:nlsdata.obj
 0002:000056ec       ??_C@_07CGJPFGJA@January?$AA@ 100496ec     libucrt:nlsdata.obj
 0002:000056f4       ??_C@_08GNJGEPFN@February?$AA@ 100496f4     libucrt:nlsdata.obj
 0002:00005700       ??_C@_05HPCKOFNC@March?$AA@ 10049700     libucrt:nlsdata.obj
 0002:00005708       ??_C@_05DMJDNLEJ@April?$AA@ 10049708     libucrt:nlsdata.obj
 0002:00005710       ??_C@_04CNLMGBGM@June?$AA@ 10049710     libucrt:nlsdata.obj
 0002:00005718       ??_C@_04MIEPOIFP@July?$AA@ 10049718     libucrt:nlsdata.obj
 0002:00005720       ??_C@_06LBBHFDDG@August?$AA@ 10049720     libucrt:nlsdata.obj
 0002:00005728       ??_C@_09BHHEALKD@September?$AA@ 10049728     libucrt:nlsdata.obj
 0002:00005734       ??_C@_07JJNFCEND@October?$AA@ 10049734     libucrt:nlsdata.obj
 0002:0000573c       ??_C@_08HCHEGEOA@November?$AA@ 1004973c     libucrt:nlsdata.obj
 0002:00005748       ??_C@_08EDHMEBNP@December?$AA@ 10049748     libucrt:nlsdata.obj
 0002:00005754       ??_C@_02CJNFDJBF@PM?$AA@   10049754     libucrt:nlsdata.obj
 0002:00005758       ??_C@_08BPBNCDIB@MM?1dd?1yy?$AA@ 10049758     libucrt:nlsdata.obj
 0002:00005764       ??_C@_0BE@CKGJFCPC@dddd?0?5MMMM?5dd?0?5yyyy?$AA@ 10049764     libucrt:nlsdata.obj
 0002:00005778       ??_C@_08JCCMCCIL@HH?3mm?3ss?$AA@ 10049778     libucrt:nlsdata.obj
 0002:00005784       ??_C@_17MBGCMIPB@?$AAS?$AAu?$AAn?$AA?$AA@ 10049784     libucrt:nlsdata.obj
 0002:0000578c       ??_C@_17KBOMKBF@?$AAM?$AAo?$AAn?$AA?$AA@ 1004978c     libucrt:nlsdata.obj
 0002:00005794       ??_C@_17BMKGEGOJ@?$AAT?$AAu?$AAe?$AA?$AA@ 10049794     libucrt:nlsdata.obj
 0002:0000579c       ??_C@_17CJEDCEPE@?$AAW?$AAe?$AAd?$AA?$AA@ 1004979c     libucrt:nlsdata.obj
 0002:000057a4       ??_C@_17PDPHAADD@?$AAT?$AAh?$AAu?$AA?$AA@ 100497a4     libucrt:nlsdata.obj
 0002:000057ac       ??_C@_17HFOLPPLP@?$AAF?$AAr?$AAi?$AA?$AA@ 100497ac     libucrt:nlsdata.obj
 0002:000057b4       ??_C@_17GGIBDPIH@?$AAS?$AAa?$AAt?$AA?$AA@ 100497b4     libucrt:nlsdata.obj
 0002:000057bc       ??_C@_1O@IHNHDHPB@?$AAS?$AAu?$AAn?$AAd?$AAa?$AAy?$AA?$AA@ 100497bc     libucrt:nlsdata.obj
 0002:000057cc       ??_C@_1O@MMNBFLIA@?$AAM?$AAo?$AAn?$AAd?$AAa?$AAy?$AA?$AA@ 100497cc     libucrt:nlsdata.obj
 0002:000057dc       ??_C@_1BA@ENFBFFEK@?$AAT?$AAu?$AAe?$AAs?$AAd?$AAa?$AAy?$AA?$AA@ 100497dc     libucrt:nlsdata.obj
 0002:000057ec       ??_C@_1BE@EBOGMDOH@?$AAW?$AAe?$AAd?$AAn?$AAe?$AAs?$AAd?$AAa?$AAy?$AA?$AA@ 100497ec     libucrt:nlsdata.obj
 0002:00005800       ??_C@_1BC@HHMNLIHE@?$AAT?$AAh?$AAu?$AAr?$AAs?$AAd?$AAa?$AAy?$AA?$AA@ 10049800     libucrt:nlsdata.obj
 0002:00005814       ??_C@_1O@PDICJHAG@?$AAF?$AAr?$AAi?$AAd?$AAa?$AAy?$AA?$AA@ 10049814     libucrt:nlsdata.obj
 0002:00005824       ??_C@_1BC@ENMNNPAJ@?$AAS?$AAa?$AAt?$AAu?$AAr?$AAd?$AAa?$AAy?$AA?$AA@ 10049824     libucrt:nlsdata.obj
 0002:00005838       ??_C@_17DKNBKCHM@?$AAJ?$AAa?$AAn?$AA?$AA@ 10049838     libucrt:nlsdata.obj
 0002:00005840       ??_C@_17LMDJEKJN@?$AAF?$AAe?$AAb?$AA?$AA@ 10049840     libucrt:nlsdata.obj
 0002:00005848       ??_C@_17CKNLEDEC@?$AAM?$AAa?$AAr?$AA?$AA@ 10049848     libucrt:nlsdata.obj
 0002:00005850       ??_C@_17LFPOIHDD@?$AAA?$AAp?$AAr?$AA?$AA@ 10049850     libucrt:nlsdata.obj
 0002:00005858       ??_C@_17PNNKMEED@?$AAM?$AAa?$AAy?$AA?$AA@ 10049858     libucrt:nlsdata.obj
 0002:00005860       ??_C@_17KCJGOCPB@?$AAJ?$AAu?$AAn?$AA?$AA@ 10049860     libucrt:nlsdata.obj
 0002:00005868       ??_C@_17IJPCKHK@?$AAJ?$AAu?$AAl?$AA?$AA@ 10049868     libucrt:nlsdata.obj
 0002:00005870       ??_C@_17ICPELBCN@?$AAA?$AAu?$AAg?$AA?$AA@ 10049870     libucrt:nlsdata.obj
 0002:00005878       ??_C@_17HCHCOKMG@?$AAS?$AAe?$AAp?$AA?$AA@ 10049878     libucrt:nlsdata.obj
 0002:00005880       ??_C@_17FNLKOI@?$AAO?$AAc?$AAt?$AA?$AA@ 10049880     libucrt:nlsdata.obj
 0002:00005888       ??_C@_17BBDMLCIG@?$AAN?$AAo?$AAv?$AA?$AA@ 10049888     libucrt:nlsdata.obj
 0002:00005890       ??_C@_17EGKACKIF@?$AAD?$AAe?$AAc?$AA?$AA@ 10049890     libucrt:nlsdata.obj
 0002:00005898       ??_C@_1BA@EFMEIEBA@?$AAJ?$AAa?$AAn?$AAu?$AAa?$AAr?$AAy?$AA?$AA@ 10049898     libucrt:nlsdata.obj
 0002:000058a8       ??_C@_1BC@JGDDFFAM@?$AAF?$AAe?$AAb?$AAr?$AAu?$AAa?$AAr?$AAy?$AA?$AA@ 100498a8     libucrt:nlsdata.obj
 0002:000058bc       ??_C@_1M@IKEENEDF@?$AAM?$AAa?$AAr?$AAc?$AAh?$AA?$AA@ 100498bc     libucrt:nlsdata.obj
 0002:000058c8       ??_C@_1M@GJNLMHFD@?$AAA?$AAp?$AAr?$AAi?$AAl?$AA?$AA@ 100498c8     libucrt:nlsdata.obj
 0002:000058d4       ??_C@_19EPFLPGAP@?$AAJ?$AAu?$AAn?$AAe?$AA?$AA@ 100498d4     libucrt:nlsdata.obj
 0002:000058e0       ??_C@_19BIFMLPCD@?$AAJ?$AAu?$AAl?$AAy?$AA?$AA@ 100498e0     libucrt:nlsdata.obj
 0002:000058ec       ??_C@_1O@PAHLKOAC@?$AAA?$AAu?$AAg?$AAu?$AAs?$AAt?$AA?$AA@ 100498ec     libucrt:nlsdata.obj
 0002:000058fc       ??_C@_1BE@DKAAMBJL@?$AAS?$AAe?$AAp?$AAt?$AAe?$AAm?$AAb?$AAe?$AAr?$AA?$AA@ 100498fc     libucrt:nlsdata.obj
 0002:00005910       ??_C@_1BA@EPANDLNG@?$AAO?$AAc?$AAt?$AAo?$AAb?$AAe?$AAr?$AA?$AA@ 10049910     libucrt:nlsdata.obj
 0002:00005920       ??_C@_1BC@BGLIFPF@?$AAN?$AAo?$AAv?$AAe?$AAm?$AAb?$AAe?$AAr?$AA?$AA@ 10049920     libucrt:nlsdata.obj
 0002:00005934       ??_C@_1BC@FEMKIFH@?$AAD?$AAe?$AAc?$AAe?$AAm?$AAb?$AAe?$AAr?$AA?$AA@ 10049934     libucrt:nlsdata.obj
 0002:00005948       ??_C@_15ODEHAHHF@?$AAA?$AAM?$AA?$AA@ 10049948     libucrt:nlsdata.obj
 0002:00005950       ??_C@_15CLMNNGEL@?$AAP?$AAM?$AA?$AA@ 10049950     libucrt:nlsdata.obj
 0002:00005958       ??_C@_1BC@IEBCMHCM@?$AAM?$AAM?$AA?1?$AAd?$AAd?$AA?1?$AAy?$AAy?$AA?$AA@ 10049958     libucrt:nlsdata.obj
 0002:0000596c       ??_C@_1CI@KNAKOEBC@?$AAd?$AAd?$AAd?$AAd?$AA?0?$AA?5?$AAM?$AAM?$AAM?$AAM?$AA?5?$AAd?$AAd?$AA?0?$AA?5?$AAy?$AAy?$AAy?$AAy?$AA?$AA@ 1004996c     libucrt:nlsdata.obj
 0002:00005994       ??_C@_1BC@GDGBMEMK@?$AAH?$AAH?$AA?3?$AAm?$AAm?$AA?3?$AAs?$AAs?$AA?$AA@ 10049994     libucrt:nlsdata.obj
 0002:000059a8       ___lc_time_c               100499a8     libucrt:nlsdata.obj
 0002:00005b0c       ??_C@_03OEIAHPBN@INF?$AA@  10049b0c     libucrt:cvt.obj
 0002:00005b10       ??_C@_03OJHLLCGB@inf?$AA@  10049b10     libucrt:cvt.obj
 0002:00005b14       ??_C@_03LKNCIKJB@NAN?$AA@  10049b14     libucrt:cvt.obj
 0002:00005b18       ??_C@_03LHCJEHON@nan?$AA@  10049b18     libucrt:cvt.obj
 0002:00005b1c       ??_C@_09OFJJIMPC@NAN?$CISNAN?$CJ?$AA@ 10049b1c     libucrt:cvt.obj
 0002:00005b28       ??_C@_09IPFBKMDL@nan?$CIsnan?$CJ?$AA@ 10049b28     libucrt:cvt.obj
 0002:00005b34       ??_C@_08IKHNHAJ@NAN?$CIIND?$CJ?$AA@ 10049b34     libucrt:cvt.obj
 0002:00005b40       ??_C@_08OFCDMILK@nan?$CIind?$CJ?$AA@ 10049b40     libucrt:cvt.obj
 0002:00005b4c       ??_C@_05KLBDPFGC@e?$CL000?$AA@ 10049b4c     libucrt:cvt.obj
 0002:00005ba8       ??_C@_1EG@CNNIPFIM@?$AAa?$AAp?$AAi?$AA?9?$AAm?$AAs?$AA?9?$AAw?$AAi?$AAn?$AA?9?$AAa?$AAp?$AAp?$AAm?$AAo?$AAd?$AAe?$AAl?$AA?9?$AAr?$AAu?$AAn?$AAt?$AAi?$AAm?$AAe?$AA?9?$AAl?$AA1?$AA?9?$AA1@ 10049ba8     libucrt:winapi_thunks.obj
 0002:00005bf0       ??_C@_1EA@JGEFHKEI@?$AAa?$AAp?$AAi?$AA?9?$AAm?$AAs?$AA?9?$AAw?$AAi?$AAn?$AA?9?$AAc?$AAo?$AAr?$AAe?$AA?9?$AAd?$AAa?$AAt?$AAe?$AAt?$AAi?$AAm?$AAe?$AA?9?$AAl?$AA1?$AA?9?$AA1?$AA?9?$AA1?$AA?$AA@ 10049bf0     libucrt:winapi_thunks.obj
 0002:00005c30       ??_C@_1DI@GCIAAENM@?$AAa?$AAp?$AAi?$AA?9?$AAm?$AAs?$AA?9?$AAw?$AAi?$AAn?$AA?9?$AAc?$AAo?$AAr?$AAe?$AA?9?$AAf?$AAi?$AAl?$AAe?$AA?9?$AAl?$AA2?$AA?9?$AA1?$AA?9?$AA1?$AA?$AA@ 10049c30     libucrt:winapi_thunks.obj
 0002:00005c68       ??_C@_1EI@MPIAOHOC@?$AAa?$AAp?$AAi?$AA?9?$AAm?$AAs?$AA?9?$AAw?$AAi?$AAn?$AA?9?$AAc?$AAo?$AAr?$AAe?$AA?9?$AAl?$AAo?$AAc?$AAa?$AAl?$AAi?$AAz?$AAa?$AAt?$AAi?$AAo?$AAn?$AA?9?$AAl?$AA1?$AA?9@ 10049c68     libucrt:winapi_thunks.obj
 0002:00005cb0       ??_C@_1FK@FPHCKFIE@?$AAa?$AAp?$AAi?$AA?9?$AAm?$AAs?$AA?9?$AAw?$AAi?$AAn?$AA?9?$AAc?$AAo?$AAr?$AAe?$AA?9?$AAl?$AAo?$AAc?$AAa?$AAl?$AAi?$AAz?$AAa?$AAt?$AAi?$AAo?$AAn?$AA?9?$AAo?$AAb?$AAs@ 10049cb0     libucrt:winapi_thunks.obj
 0002:00005d10       ??_C@_1EM@DILCGIIO@?$AAa?$AAp?$AAi?$AA?9?$AAm?$AAs?$AA?9?$AAw?$AAi?$AAn?$AA?9?$AAc?$AAo?$AAr?$AAe?$AA?9?$AAp?$AAr?$AAo?$AAc?$AAe?$AAs?$AAs?$AAt?$AAh?$AAr?$AAe?$AAa?$AAd?$AAs?$AA?9?$AAl@ 10049d10     libucrt:winapi_thunks.obj
 0002:00005d5c       ??_C@_1DM@LNCGDDPN@?$AAa?$AAp?$AAi?$AA?9?$AAm?$AAs?$AA?9?$AAw?$AAi?$AAn?$AA?9?$AAc?$AAo?$AAr?$AAe?$AA?9?$AAs?$AAt?$AAr?$AAi?$AAn?$AAg?$AA?9?$AAl?$AA1?$AA?9?$AA1?$AA?9?$AA0?$AA?$AA@ 10049d5c     libucrt:winapi_thunks.obj
 0002:00005d98       ??_C@_1DO@FPAPJEMD@?$AAa?$AAp?$AAi?$AA?9?$AAm?$AAs?$AA?9?$AAw?$AAi?$AAn?$AA?9?$AAc?$AAo?$AAr?$AAe?$AA?9?$AAs?$AAy?$AAs?$AAi?$AAn?$AAf?$AAo?$AA?9?$AAl?$AA1?$AA?9?$AA2?$AA?9?$AA1?$AA?$AA@ 10049d98     libucrt:winapi_thunks.obj
 0002:00005dd8       ??_C@_1DK@NDHNAHIO@?$AAa?$AAp?$AAi?$AA?9?$AAm?$AAs?$AA?9?$AAw?$AAi?$AAn?$AA?9?$AAc?$AAo?$AAr?$AAe?$AA?9?$AAw?$AAi?$AAn?$AAr?$AAt?$AA?9?$AAl?$AA1?$AA?9?$AA1?$AA?9?$AA0?$AA?$AA@ 10049dd8     libucrt:winapi_thunks.obj
 0002:00005e14       ??_C@_1DM@KGHDGBCM@?$AAa?$AAp?$AAi?$AA?9?$AAm?$AAs?$AA?9?$AAw?$AAi?$AAn?$AA?9?$AAc?$AAo?$AAr?$AAe?$AA?9?$AAx?$AAs?$AAt?$AAa?$AAt?$AAe?$AA?9?$AAl?$AA2?$AA?9?$AA1?$AA?9?$AA0?$AA?$AA@ 10049e14     libucrt:winapi_thunks.obj
 0002:00005e50       ??_C@_1EO@IJIOEFOH@?$AAa?$AAp?$AAi?$AA?9?$AAm?$AAs?$AA?9?$AAw?$AAi?$AAn?$AA?9?$AAr?$AAt?$AAc?$AAo?$AAr?$AAe?$AA?9?$AAn?$AAt?$AAu?$AAs?$AAe?$AAr?$AA?9?$AAw?$AAi?$AAn?$AAd?$AAo?$AAw?$AA?9@ 10049e50     libucrt:winapi_thunks.obj
 0002:00005ea0       ??_C@_1FG@HHGEKANL@?$AAa?$AAp?$AAi?$AA?9?$AAm?$AAs?$AA?9?$AAw?$AAi?$AAn?$AA?9?$AAs?$AAe?$AAc?$AAu?$AAr?$AAi?$AAt?$AAy?$AA?9?$AAs?$AAy?$AAs?$AAt?$AAe?$AAm?$AAf?$AAu?$AAn?$AAc?$AAt?$AAi@ 10049ea0     libucrt:winapi_thunks.obj
 0002:00005ef8       ??_C@_1FG@NCKKOLKO@?$AAe?$AAx?$AAt?$AA?9?$AAm?$AAs?$AA?9?$AAw?$AAi?$AAn?$AA?9?$AAk?$AAe?$AAr?$AAn?$AAe?$AAl?$AA3?$AA2?$AA?9?$AAp?$AAa?$AAc?$AAk?$AAa?$AAg?$AAe?$AA?9?$AAc?$AAu?$AAr?$AAr@ 10049ef8     libucrt:winapi_thunks.obj
 0002:00005f50       ??_C@_1EG@DBIOJECG@?$AAe?$AAx?$AAt?$AA?9?$AAm?$AAs?$AA?9?$AAw?$AAi?$AAn?$AA?9?$AAn?$AAt?$AAu?$AAs?$AAe?$AAr?$AA?9?$AAd?$AAi?$AAa?$AAl?$AAo?$AAg?$AAb?$AAo?$AAx?$AA?9?$AAl?$AA1?$AA?9?$AA1@ 10049f50     libucrt:winapi_thunks.obj
 0002:00005f98       ??_C@_1EO@FIHMJCLF@?$AAe?$AAx?$AAt?$AA?9?$AAm?$AAs?$AA?9?$AAw?$AAi?$AAn?$AA?9?$AAn?$AAt?$AAu?$AAs?$AAe?$AAr?$AA?9?$AAw?$AAi?$AAn?$AAd?$AAo?$AAw?$AAs?$AAt?$AAa?$AAt?$AAi?$AAo?$AAn?$AA?9@ 10049f98     libucrt:winapi_thunks.obj
 0002:00005fe8       ??_C@_1O@BCCLBEOE@?$AAu?$AAs?$AAe?$AAr?$AA3?$AA2?$AA?$AA@ 10049fe8     libucrt:winapi_thunks.obj
 0002:00005ffc       ??_C@_0BA@FHFNEAED@AreFileApisANSI?$AA@ 10049ffc     libucrt:winapi_thunks.obj
 0002:0000601c       ??_C@_0BE@LJANKFHF@EnumSystemLocalesEx?$AA@ 1004a01c     libucrt:winapi_thunks.obj
 0002:00006058       ??_C@_0BA@HNOPNCHB@GetActiveWindow?$AA@ 1004a058     libucrt:winapi_thunks.obj
 0002:00006078       ??_C@_0BD@HHGDFDBJ@GetLastActivePopup?$AA@ 1004a078     libucrt:winapi_thunks.obj
 0002:0000609c       ??_C@_0BI@DFKBFLJE@GetProcessWindowStation?$AA@ 1004a09c     libucrt:winapi_thunks.obj
 0002:000060bc       ??_C@_0BJ@PBCCBIPI@GetUserDefaultLocaleName?$AA@ 1004a0bc     libucrt:winapi_thunks.obj
 0002:000060e0       ??_C@_0BK@DEKFELLI@GetUserObjectInformationW?$AA@ 1004a0e0     libucrt:winapi_thunks.obj
 0002:0000610c       ??_C@_0BC@CELBKLLA@IsValidLocaleName?$AA@ 1004a10c     libucrt:winapi_thunks.obj
 0002:00006130       ??_C@_0BB@CDHDDLLP@LCIDToLocaleName?$AA@ 1004a130     libucrt:winapi_thunks.obj
 0002:0000614c       ??_C@_0BB@HBDEELFH@LocaleNameToLCID?$AA@ 1004a14c     libucrt:winapi_thunks.obj
 0002:00006168       ??_C@_0M@CHKKJDAI@MessageBoxA?$AA@ 1004a168     libucrt:winapi_thunks.obj
 0002:0000617c       ??_C@_0M@DLDCCGNP@MessageBoxW?$AA@ 1004a17c     libucrt:winapi_thunks.obj
 0002:00006188       ?ccs@?BL@???$__acrt_stdio_parse_mode@D@@YA?AU__acrt_stdio_stream_mode@@QBD@Z@4QBDB 1004a188     libucrt:openfile.obj
 0002:0000618c       ?utf8_encoding@?BL@???$__acrt_stdio_parse_mode@D@@YA?AU__acrt_stdio_stream_mode@@QBD@Z@4QBDB 1004a18c     libucrt:openfile.obj
 0002:00006194       ?utf16_encoding@?BL@???$__acrt_stdio_parse_mode@D@@YA?AU__acrt_stdio_stream_mode@@QBD@Z@4QBDB 1004a194     libucrt:openfile.obj
 0002:0000619c       ?unicode_encoding@?BL@???$__acrt_stdio_parse_mode@D@@YA?AU__acrt_stdio_stream_mode@@QBD@Z@4QBDB 1004a19c     libucrt:openfile.obj
 0002:000061a4       ??_C@_04FJHINJAO@tanh?$AA@ 1004a1a4     libucrt:fpexcept.obj
 0002:000061ac       ??_C@_04FIHNOPOL@asin?$AA@ 1004a1ac     libucrt:fpexcept.obj
 0002:000061b4       ??_C@_04PDIFKINK@acos?$AA@ 1004a1b4     libucrt:fpexcept.obj
 0002:000061bc       ??_C@_04MLLJIGOK@atan?$AA@ 1004a1bc     libucrt:fpexcept.obj
 0002:000061c4       ??_C@_05KNGEOGJB@atan2?$AA@ 1004a1c4     libucrt:fpexcept.obj
 0002:000061cc       ??_C@_04EIAKFFMI@sqrt?$AA@ 1004a1cc     libucrt:fpexcept.obj
 0002:000061d4       ??_C@_03BLEJJJBH@sin?$AA@  1004a1d4     libucrt:fpexcept.obj
 0002:000061d8       ??_C@_03LALBNOCG@cos?$AA@  1004a1d8     libucrt:fpexcept.obj
 0002:000061dc       ??_C@_03IIINPABG@tan?$AA@  1004a1dc     libucrt:fpexcept.obj
 0002:000061e0       ??_C@_04GFPJNGEK@ceil?$AA@ 1004a1e0     libucrt:fpexcept.obj
 0002:000061e8       ??_C@_05PBJFFIGL@floor?$AA@ 1004a1e8     libucrt:fpexcept.obj
 0002:000061f0       ??_C@_04ODHECPBC@fabs?$AA@ 1004a1f0     libucrt:fpexcept.obj
 0002:000061f8       ??_C@_04EHEDPDJG@modf?$AA@ 1004a1f8     libucrt:fpexcept.obj
 0002:00006200       ??_C@_05CEJMAHNP@ldexp?$AA@ 1004a200     libucrt:fpexcept.obj
 0002:00006208       ??_C@_05KBKMEMPO@_cabs?$AA@ 1004a208     libucrt:fpexcept.obj
 0002:00006210       ??_C@_06MEIMCGCF@_hypot?$AA@ 1004a210     libucrt:fpexcept.obj
 0002:00006218       ??_C@_04KEPJIHGP@fmod?$AA@ 1004a218     libucrt:fpexcept.obj
 0002:00006220       ??_C@_05GKKHEGJL@frexp?$AA@ 1004a220     libucrt:fpexcept.obj
 0002:00006228       ??_C@_03MJLDFKDL@_y0?$AA@  1004a228     libucrt:fpexcept.obj
 0002:0000622c       ??_C@_03NAKIGLHK@_y1?$AA@  1004a22c     libucrt:fpexcept.obj
 0002:00006230       ??_C@_03ONILCKOB@_yn?$AA@  1004a230     libucrt:fpexcept.obj
 0002:00006234       ??_C@_05JGDBENOH@_logb?$AA@ 1004a234     libucrt:fpexcept.obj
 0002:0000623c       ??_C@_0L@KDOEJCKC@_nextafter?$AA@ 1004a23c     libucrt:fpexcept.obj
 0002:00006330       ??_C@_03KHJOGHMM@exp?$AA@  1004a330     libucrt:fpexcept.obj
 0002:00006334       ??_C@_03JGHBODFD@pow?$AA@  1004a334     libucrt:fpexcept.obj
 0002:00006338       ??_C@_03MGHMBJCF@log?$AA@  1004a338     libucrt:fpexcept.obj
 0002:0000633c       ??_C@_05HGHHAHAP@log10?$AA@ 1004a33c     libucrt:fpexcept.obj
 0002:00006344       ??_C@_04COOMCNPB@sinh?$AA@ 1004a344     libucrt:fpexcept.obj
 0002:0000634c       ??_C@_04HPJJNFIM@cosh?$AA@ 1004a34c     libucrt:fpexcept.obj
 0002:00006358       __d_inf                    1004a358     libucrt:util.obj
 0002:00006360       __d_max                    1004a360     libucrt:util.obj
 0002:00006368       __d_mzero                  1004a368     libucrt:util.obj
 0002:00006450       __infinity                 1004a450     libucrt:87tran.obj
 0002:0000645a       __minfinity                1004a45a     libucrt:87tran.obj
 0002:00006464       __logemax                  1004a464     libucrt:87tran.obj
 0002:0000648a       __OP_EXPjmptab             1004a48a     libucrt:87tran.obj
 0002:000064b0       __indefinite               1004a4b0     libucrt:87disp.obj
 0002:000064ba       __piby2                    1004a4ba     libucrt:87disp.obj
 0002:000064c4       __piby4                    1004a4c4     libucrt:87disp.obj
 0002:000064f8       __DEFAULT_CW_in_mem        1004a4f8     libucrt:common.obj
 0002:000064fa       __pi_by_2_to_61            1004a4fa     libucrt:common.obj
 0002:00006538       __real@3fe0000000000000    1004a538     libucrt:powhlp.obj
 0002:00006550       ??_C@_1BC@LLOKLNP@?$AAa?$AAm?$AAe?$AAr?$AAi?$AAc?$AAa?$AAn?$AA?$AA@ 1004a550     libucrt:get_qualified_locale.obj
 0002:00006564       ??_C@_1CC@HEIGCDGG@?$AAa?$AAm?$AAe?$AAr?$AAi?$AAc?$AAa?$AAn?$AA?5?$AAe?$AAn?$AAg?$AAl?$AAi?$AAs?$AAh?$AA?$AA@ 1004a564     libucrt:get_qualified_locale.obj
 0002:00006588       ??_C@_1CC@IHCNOMIN@?$AAa?$AAm?$AAe?$AAr?$AAi?$AAc?$AAa?$AAn?$AA?9?$AAe?$AAn?$AAg?$AAl?$AAi?$AAs?$AAh?$AA?$AA@ 1004a588     libucrt:get_qualified_locale.obj
 0002:000065ac       ??_C@_1BG@GKAGPCGG@?$AAa?$AAu?$AAs?$AAt?$AAr?$AAa?$AAl?$AAi?$AAa?$AAn?$AA?$AA@ 1004a5ac     libucrt:get_qualified_locale.obj
 0002:000065c4       ??_C@_1BA@GMENCENF@?$AAb?$AAe?$AAl?$AAg?$AAi?$AAa?$AAn?$AA?$AA@ 1004a5c4     libucrt:get_qualified_locale.obj
 0002:000065d4       ??_C@_1BC@PJMIIAAN@?$AAc?$AAa?$AAn?$AAa?$AAd?$AAi?$AAa?$AAn?$AA?$AA@ 1004a5d4     libucrt:get_qualified_locale.obj
 0002:000065e8       ??_C@_17NOIMNFBF@?$AAc?$AAh?$AAh?$AA?$AA@ 1004a5e8     libucrt:get_qualified_locale.obj
 0002:000065f0       ??_C@_17GGDALCHA@?$AAc?$AAh?$AAi?$AA?$AA@ 1004a5f0     libucrt:get_qualified_locale.obj
 0002:000065f8       ??_C@_1BA@NPNJKIBL@?$AAc?$AAh?$AAi?$AAn?$AAe?$AAs?$AAe?$AA?$AA@ 1004a5f8     libucrt:get_qualified_locale.obj
 0002:00006608       ??_C@_1CC@DINBAMMJ@?$AAc?$AAh?$AAi?$AAn?$AAe?$AAs?$AAe?$AA?9?$AAh?$AAo?$AAn?$AAg?$AAk?$AAo?$AAn?$AAg?$AA?$AA@ 1004a608     libucrt:get_qualified_locale.obj
 0002:0000662c       ??_C@_1CG@IOBJPACO@?$AAc?$AAh?$AAi?$AAn?$AAe?$AAs?$AAe?$AA?9?$AAs?$AAi?$AAm?$AAp?$AAl?$AAi?$AAf?$AAi?$AAe?$AAd?$AA?$AA@ 1004a62c     libucrt:get_qualified_locale.obj
 0002:00006654       ??_C@_1CE@GAJNDCKG@?$AAc?$AAh?$AAi?$AAn?$AAe?$AAs?$AAe?$AA?9?$AAs?$AAi?$AAn?$AAg?$AAa?$AAp?$AAo?$AAr?$AAe?$AA?$AA@ 1004a654     libucrt:get_qualified_locale.obj
 0002:00006678       ??_C@_1CI@PAJPIOOD@?$AAc?$AAh?$AAi?$AAn?$AAe?$AAs?$AAe?$AA?9?$AAt?$AAr?$AAa?$AAd?$AAi?$AAt?$AAi?$AAo?$AAn?$AAa?$AAl?$AA?$AA@ 1004a678     libucrt:get_qualified_locale.obj
 0002:000066a0       ??_C@_1BM@NILJBMMD@?$AAd?$AAu?$AAt?$AAc?$AAh?$AA?9?$AAb?$AAe?$AAl?$AAg?$AAi?$AAa?$AAn?$AA?$AA@ 1004a6a0     libucrt:get_qualified_locale.obj
 0002:000066bc       ??_C@_1CC@OOJPJNEJ@?$AAe?$AAn?$AAg?$AAl?$AAi?$AAs?$AAh?$AA?9?$AAa?$AAm?$AAe?$AAr?$AAi?$AAc?$AAa?$AAn?$AA?$AA@ 1004a6bc     libucrt:get_qualified_locale.obj
 0002:000066e0       ??_C@_1BI@IOLFEEM@?$AAe?$AAn?$AAg?$AAl?$AAi?$AAs?$AAh?$AA?9?$AAa?$AAu?$AAs?$AA?$AA@ 1004a6e0     libucrt:get_qualified_locale.obj
 0002:000066f8       ??_C@_1BO@HFFNLENJ@?$AAe?$AAn?$AAg?$AAl?$AAi?$AAs?$AAh?$AA?9?$AAb?$AAe?$AAl?$AAi?$AAz?$AAe?$AA?$AA@ 1004a6f8     libucrt:get_qualified_locale.obj
 0002:00006718       ??_C@_1BI@HAPKJMPO@?$AAe?$AAn?$AAg?$AAl?$AAi?$AAs?$AAh?$AA?9?$AAc?$AAa?$AAn?$AA?$AA@ 1004a718     libucrt:get_qualified_locale.obj
 0002:00006730       ??_C@_1CE@HLNDMIOJ@?$AAe?$AAn?$AAg?$AAl?$AAi?$AAs?$AAh?$AA?9?$AAc?$AAa?$AAr?$AAi?$AAb?$AAb?$AAe?$AAa?$AAn?$AA?$AA@ 1004a730     libucrt:get_qualified_locale.obj
 0002:00006754       ??_C@_1BI@LDHJHHAC@?$AAe?$AAn?$AAg?$AAl?$AAi?$AAs?$AAh?$AA?9?$AAi?$AAr?$AAe?$AA?$AA@ 1004a754     libucrt:get_qualified_locale.obj
 0002:0000676c       ??_C@_1CA@NJMMCFOC@?$AAe?$AAn?$AAg?$AAl?$AAi?$AAs?$AAh?$AA?9?$AAj?$AAa?$AAm?$AAa?$AAi?$AAc?$AAa?$AA?$AA@ 1004a76c     libucrt:get_qualified_locale.obj
 0002:0000678c       ??_C@_1BG@BHJEBBGG@?$AAe?$AAn?$AAg?$AAl?$AAi?$AAs?$AAh?$AA?9?$AAn?$AAz?$AA?$AA@ 1004a78c     libucrt:get_qualified_locale.obj
 0002:000067a4       ??_C@_1CK@FGOEJJCO@?$AAe?$AAn?$AAg?$AAl?$AAi?$AAs?$AAh?$AA?9?$AAs?$AAo?$AAu?$AAt?$AAh?$AA?5?$AAa?$AAf?$AAr?$AAi?$AAc?$AAa?$AA?$AA@ 1004a7a4     libucrt:get_qualified_locale.obj
 0002:000067d0       ??_C@_1DE@PDBJPCJ@?$AAe?$AAn?$AAg?$AAl?$AAi?$AAs?$AAh?$AA?9?$AAt?$AAr?$AAi?$AAn?$AAi?$AAd?$AAa?$AAd?$AA?5?$AAy?$AA?5?$AAt?$AAo?$AAb?$AAa?$AAg?$AAo?$AA?$AA@ 1004a7d0     libucrt:get_qualified_locale.obj
 0002:00006804       ??_C@_1BG@JGCANDME@?$AAe?$AAn?$AAg?$AAl?$AAi?$AAs?$AAh?$AA?9?$AAu?$AAk?$AA?$AA@ 1004a804     libucrt:get_qualified_locale.obj
 0002:0000681c       ??_C@_1BG@DINKMLE@?$AAe?$AAn?$AAg?$AAl?$AAi?$AAs?$AAh?$AA?9?$AAu?$AAs?$AA?$AA@ 1004a81c     libucrt:get_qualified_locale.obj
 0002:00006834       ??_C@_1BI@NMFDBHJE@?$AAe?$AAn?$AAg?$AAl?$AAi?$AAs?$AAh?$AA?9?$AAu?$AAs?$AAa?$AA?$AA@ 1004a834     libucrt:get_qualified_locale.obj
 0002:0000684c       ??_C@_1BO@OIHKJKII@?$AAf?$AAr?$AAe?$AAn?$AAc?$AAh?$AA?9?$AAb?$AAe?$AAl?$AAg?$AAi?$AAa?$AAn?$AA?$AA@ 1004a84c     libucrt:get_qualified_locale.obj
 0002:0000686c       ??_C@_1CA@NKAELJKI@?$AAf?$AAr?$AAe?$AAn?$AAc?$AAh?$AA?9?$AAc?$AAa?$AAn?$AAa?$AAd?$AAi?$AAa?$AAn?$AA?$AA@ 1004a86c     libucrt:get_qualified_locale.obj
 0002:0000688c       ??_C@_1CE@MGKCNLGN@?$AAf?$AAr?$AAe?$AAn?$AAc?$AAh?$AA?9?$AAl?$AAu?$AAx?$AAe?$AAm?$AAb?$AAo?$AAu?$AAr?$AAg?$AA?$AA@ 1004a88c     libucrt:get_qualified_locale.obj
 0002:000068b0       ??_C@_1BK@CEGEAILM@?$AAf?$AAr?$AAe?$AAn?$AAc?$AAh?$AA?9?$AAs?$AAw?$AAi?$AAs?$AAs?$AA?$AA@ 1004a8b0     libucrt:get_qualified_locale.obj
 0002:000068cc       ??_C@_1CA@PAFKEOCC@?$AAg?$AAe?$AAr?$AAm?$AAa?$AAn?$AA?9?$AAa?$AAu?$AAs?$AAt?$AAr?$AAi?$AAa?$AAn?$AA?$AA@ 1004a8cc     libucrt:get_qualified_locale.obj
 0002:000068ec       ??_C@_1CI@HCFHGOFD@?$AAg?$AAe?$AAr?$AAm?$AAa?$AAn?$AA?9?$AAl?$AAi?$AAc?$AAh?$AAt?$AAe?$AAn?$AAs?$AAt?$AAe?$AAi?$AAn?$AA?$AA@ 1004a8ec     libucrt:get_qualified_locale.obj
 0002:00006914       ??_C@_1CE@FEDDNPDG@?$AAg?$AAe?$AAr?$AAm?$AAa?$AAn?$AA?9?$AAl?$AAu?$AAx?$AAe?$AAm?$AAb?$AAo?$AAu?$AAr?$AAg?$AA?$AA@ 1004a914     libucrt:get_qualified_locale.obj
 0002:00006938       ??_C@_1BK@LIMINNMN@?$AAg?$AAe?$AAr?$AAm?$AAa?$AAn?$AA?9?$AAs?$AAw?$AAi?$AAs?$AAs?$AA?$AA@ 1004a938     libucrt:get_qualified_locale.obj
 0002:00006954       ??_C@_1BM@LGMDBEPD@?$AAi?$AAr?$AAi?$AAs?$AAh?$AA?9?$AAe?$AAn?$AAg?$AAl?$AAi?$AAs?$AAh?$AA?$AA@ 1004a954     libucrt:get_qualified_locale.obj
 0002:00006970       ??_C@_1BM@NNCFBAEE@?$AAi?$AAt?$AAa?$AAl?$AAi?$AAa?$AAn?$AA?9?$AAs?$AAw?$AAi?$AAs?$AAs?$AA?$AA@ 1004a970     libucrt:get_qualified_locale.obj
 0002:0000698c       ??_C@_1BE@FEDJNPIB@?$AAn?$AAo?$AAr?$AAw?$AAe?$AAg?$AAi?$AAa?$AAn?$AA?$AA@ 1004a98c     libucrt:get_qualified_locale.obj
 0002:000069a0       ??_C@_1CC@CILKDEIE@?$AAn?$AAo?$AAr?$AAw?$AAe?$AAg?$AAi?$AAa?$AAn?$AA?9?$AAb?$AAo?$AAk?$AAm?$AAa?$AAl?$AA?$AA@ 1004a9a0     libucrt:get_qualified_locale.obj
 0002:000069c4       ??_C@_1CE@DHMMHEPL@?$AAn?$AAo?$AAr?$AAw?$AAe?$AAg?$AAi?$AAa?$AAn?$AA?9?$AAn?$AAy?$AAn?$AAo?$AAr?$AAs?$AAk?$AA?$AA@ 1004a9c4     libucrt:get_qualified_locale.obj
 0002:000069e8       ??_C@_1CK@OPNMHECD@?$AAp?$AAo?$AAr?$AAt?$AAu?$AAg?$AAu?$AAe?$AAs?$AAe?$AA?9?$AAb?$AAr?$AAa?$AAz?$AAi?$AAl?$AAi?$AAa?$AAn?$AA?$AA@ 1004a9e8     libucrt:get_qualified_locale.obj
 0002:00006a14       ??_C@_1CE@KEEHCDB@?$AAs?$AAp?$AAa?$AAn?$AAi?$AAs?$AAh?$AA?9?$AAa?$AAr?$AAg?$AAe?$AAn?$AAt?$AAi?$AAn?$AAa?$AA?$AA@ 1004aa14     libucrt:get_qualified_locale.obj
 0002:00006a38       ??_C@_1CA@GIAOLHJD@?$AAs?$AAp?$AAa?$AAn?$AAi?$AAs?$AAh?$AA?9?$AAb?$AAo?$AAl?$AAi?$AAv?$AAi?$AAa?$AA?$AA@ 1004aa38     libucrt:get_qualified_locale.obj
 0002:00006a58       ??_C@_1BM@OJNDFNPD@?$AAs?$AAp?$AAa?$AAn?$AAi?$AAs?$AAh?$AA?9?$AAc?$AAh?$AAi?$AAl?$AAe?$AA?$AA@ 1004aa58     libucrt:get_qualified_locale.obj
 0002:00006a74       ??_C@_1CC@OCOLPALL@?$AAs?$AAp?$AAa?$AAn?$AAi?$AAs?$AAh?$AA?9?$AAc?$AAo?$AAl?$AAo?$AAm?$AAb?$AAi?$AAa?$AA?$AA@ 1004aa74     libucrt:get_qualified_locale.obj
 0002:00006a98       ??_C@_1CG@BPOFMKBB@?$AAs?$AAp?$AAa?$AAn?$AAi?$AAs?$AAh?$AA?9?$AAc?$AAo?$AAs?$AAt?$AAa?$AA?5?$AAr?$AAi?$AAc?$AAa?$AA?$AA@ 1004aa98     libucrt:get_qualified_locale.obj
 0002:00006ac0       ??_C@_1DG@IGOBAPBB@?$AAs?$AAp?$AAa?$AAn?$AAi?$AAs?$AAh?$AA?9?$AAd?$AAo?$AAm?$AAi?$AAn?$AAi?$AAc?$AAa?$AAn?$AA?5?$AAr?$AAe?$AAp?$AAu?$AAb?$AAl?$AAi?$AAc?$AA?$AA@ 1004aac0     libucrt:get_qualified_locale.obj
 0002:00006af8       ??_C@_1CA@JHAPGEGI@?$AAs?$AAp?$AAa?$AAn?$AAi?$AAs?$AAh?$AA?9?$AAe?$AAc?$AAu?$AAa?$AAd?$AAo?$AAr?$AA?$AA@ 1004aaf8     libucrt:get_qualified_locale.obj
 0002:00006b18       ??_C@_1CI@LAPALJPP@?$AAs?$AAp?$AAa?$AAn?$AAi?$AAs?$AAh?$AA?9?$AAe?$AAl?$AA?5?$AAs?$AAa?$AAl?$AAv?$AAa?$AAd?$AAo?$AAr?$AA?$AA@ 1004ab18     libucrt:get_qualified_locale.obj
 0002:00006b40       ??_C@_1CE@PDGBOFOM@?$AAs?$AAp?$AAa?$AAn?$AAi?$AAs?$AAh?$AA?9?$AAg?$AAu?$AAa?$AAt?$AAe?$AAm?$AAa?$AAl?$AAa?$AA?$AA@ 1004ab40     libucrt:get_qualified_locale.obj
 0002:00006b64       ??_C@_1CC@NBEBAODI@?$AAs?$AAp?$AAa?$AAn?$AAi?$AAs?$AAh?$AA?9?$AAh?$AAo?$AAn?$AAd?$AAu?$AAr?$AAa?$AAs?$AA?$AA@ 1004ab64     libucrt:get_qualified_locale.obj
 0002:00006b88       ??_C@_1CA@LLKGHBMF@?$AAs?$AAp?$AAa?$AAn?$AAi?$AAs?$AAh?$AA?9?$AAm?$AAe?$AAx?$AAi?$AAc?$AAa?$AAn?$AA?$AA@ 1004ab88     libucrt:get_qualified_locale.obj
 0002:00006ba8       ??_C@_1BO@LKNDOIGD@?$AAs?$AAp?$AAa?$AAn?$AAi?$AAs?$AAh?$AA?9?$AAm?$AAo?$AAd?$AAe?$AAr?$AAn?$AA?$AA@ 1004aba8     libucrt:get_qualified_locale.obj
 0002:00006bc8       ??_C@_1CE@NMDMOEEB@?$AAs?$AAp?$AAa?$AAn?$AAi?$AAs?$AAh?$AA?9?$AAn?$AAi?$AAc?$AAa?$AAr?$AAa?$AAg?$AAu?$AAa?$AA?$AA@ 1004abc8     libucrt:get_qualified_locale.obj
 0002:00006bec       ??_C@_1BO@LLCBEJGB@?$AAs?$AAp?$AAa?$AAn?$AAi?$AAs?$AAh?$AA?9?$AAp?$AAa?$AAn?$AAa?$AAm?$AAa?$AA?$AA@ 1004abec     libucrt:get_qualified_locale.obj
 0002:00006c0c       ??_C@_1CC@FKPGGIHO@?$AAs?$AAp?$AAa?$AAn?$AAi?$AAs?$AAh?$AA?9?$AAp?$AAa?$AAr?$AAa?$AAg?$AAu?$AAa?$AAy?$AA?$AA@ 1004ac0c     libucrt:get_qualified_locale.obj
 0002:00006c30       ??_C@_1BK@CDEIHOOP@?$AAs?$AAp?$AAa?$AAn?$AAi?$AAs?$AAh?$AA?9?$AAp?$AAe?$AAr?$AAu?$AA?$AA@ 1004ac30     libucrt:get_qualified_locale.obj
 0002:00006c4c       ??_C@_1CI@GAHAKKGP@?$AAs?$AAp?$AAa?$AAn?$AAi?$AAs?$AAh?$AA?9?$AAp?$AAu?$AAe?$AAr?$AAt?$AAo?$AA?5?$AAr?$AAi?$AAc?$AAo?$AA?$AA@ 1004ac4c     libucrt:get_qualified_locale.obj
 0002:00006c74       ??_C@_1CA@NKJBCAGP@?$AAs?$AAp?$AAa?$AAn?$AAi?$AAs?$AAh?$AA?9?$AAu?$AAr?$AAu?$AAg?$AAu?$AAa?$AAy?$AA?$AA@ 1004ac74     libucrt:get_qualified_locale.obj
 0002:00006c94       ??_C@_1CE@ODILCONM@?$AAs?$AAp?$AAa?$AAn?$AAi?$AAs?$AAh?$AA?9?$AAv?$AAe?$AAn?$AAe?$AAz?$AAu?$AAe?$AAl?$AAa?$AA?$AA@ 1004ac94     libucrt:get_qualified_locale.obj
 0002:00006cb8       ??_C@_1CA@OBNMCGFO@?$AAs?$AAw?$AAe?$AAd?$AAi?$AAs?$AAh?$AA?9?$AAf?$AAi?$AAn?$AAl?$AAa?$AAn?$AAd?$AA?$AA@ 1004acb8     libucrt:get_qualified_locale.obj
 0002:00006cd8       ??_C@_1M@PIPDDPPI@?$AAs?$AAw?$AAi?$AAs?$AAs?$AA?$AA@ 1004acd8     libucrt:get_qualified_locale.obj
 0002:00006ce4       ??_C@_15GMFIMNFM@?$AAu?$AAs?$AA?$AA@ 1004ace4     libucrt:get_qualified_locale.obj
 0002:00006cec       ??_C@_17HAEBFAGL@?$AAu?$AAs?$AAa?$AA?$AA@ 1004acec     libucrt:get_qualified_locale.obj
 0002:00006cf4       ??_C@_1BA@DPFJEPHB@?$AAa?$AAm?$AAe?$AAr?$AAi?$AAc?$AAa?$AA?$AA@ 1004acf4     libucrt:get_qualified_locale.obj
 0002:00006d04       ??_C@_1BA@ELOGGFK@?$AAb?$AAr?$AAi?$AAt?$AAa?$AAi?$AAn?$AA?$AA@ 1004ad04     libucrt:get_qualified_locale.obj
 0002:00006d14       ??_C@_1M@GHBGIGDA@?$AAc?$AAh?$AAi?$AAn?$AAa?$AA?$AA@ 1004ad14     libucrt:get_qualified_locale.obj
 0002:00006d20       ??_C@_1M@NCHEJOPO@?$AAc?$AAz?$AAe?$AAc?$AAh?$AA?$AA@ 1004ad20     libucrt:get_qualified_locale.obj
 0002:00006d2c       ??_C@_1BA@BKPAPBLA@?$AAe?$AAn?$AAg?$AAl?$AAa?$AAn?$AAd?$AA?$AA@ 1004ad2c     libucrt:get_qualified_locale.obj
 0002:00006d3c       ??_C@_1BM@HKBCKIPC@?$AAg?$AAr?$AAe?$AAa?$AAt?$AA?5?$AAb?$AAr?$AAi?$AAt?$AAa?$AAi?$AAn?$AA?$AA@ 1004ad3c     libucrt:get_qualified_locale.obj
 0002:00006d58       ??_C@_1BA@PPCHPGJB@?$AAh?$AAo?$AAl?$AAl?$AAa?$AAn?$AAd?$AA?$AA@ 1004ad58     libucrt:get_qualified_locale.obj
 0002:00006d68       ??_C@_1BE@JBMPEGDG@?$AAh?$AAo?$AAn?$AAg?$AA?9?$AAk?$AAo?$AAn?$AAg?$AA?$AA@ 1004ad68     libucrt:get_qualified_locale.obj
 0002:00006d7c       ??_C@_1BI@KOELBBPJ@?$AAn?$AAe?$AAw?$AA?9?$AAz?$AAe?$AAa?$AAl?$AAa?$AAn?$AAd?$AA?$AA@ 1004ad7c     libucrt:get_qualified_locale.obj
 0002:00006d94       ??_C@_15HIEBHAIO@?$AAn?$AAz?$AA?$AA@ 1004ad94     libucrt:get_qualified_locale.obj
 0002:00006d9c       ??_C@_1BC@CHBCPFPI@?$AAp?$AAr?$AA?5?$AAc?$AAh?$AAi?$AAn?$AAa?$AA?$AA@ 1004ad9c     libucrt:get_qualified_locale.obj
 0002:00006db0       ??_C@_1BC@JAOIIFKD@?$AAp?$AAr?$AA?9?$AAc?$AAh?$AAi?$AAn?$AAa?$AA?$AA@ 1004adb0     libucrt:get_qualified_locale.obj
 0002:00006dc4       ??_C@_1BI@BEHPPHKC@?$AAp?$AAu?$AAe?$AAr?$AAt?$AAo?$AA?9?$AAr?$AAi?$AAc?$AAo?$AA?$AA@ 1004adc4     libucrt:get_qualified_locale.obj
 0002:00006ddc       ??_C@_1O@PAEOFKDI@?$AAs?$AAl?$AAo?$AAv?$AAa?$AAk?$AA?$AA@ 1004addc     libucrt:get_qualified_locale.obj
 0002:00006dec       ??_C@_1BK@FIHMCKAM@?$AAs?$AAo?$AAu?$AAt?$AAh?$AA?5?$AAa?$AAf?$AAr?$AAi?$AAc?$AAa?$AA?$AA@ 1004adec     libucrt:get_qualified_locale.obj
 0002:00006e08       ??_C@_1BI@NAEOODKB@?$AAs?$AAo?$AAu?$AAt?$AAh?$AA?5?$AAk?$AAo?$AAr?$AAe?$AAa?$AA?$AA@ 1004ae08     libucrt:get_qualified_locale.obj
 0002:00006e20       ??_C@_1BK@FBDGGIFF@?$AAs?$AAo?$AAu?$AAt?$AAh?$AA?9?$AAa?$AAf?$AAr?$AAi?$AAc?$AAa?$AA?$AA@ 1004ae20     libucrt:get_qualified_locale.obj
 0002:00006e3c       ??_C@_1BI@GHLEJDPK@?$AAs?$AAo?$AAu?$AAt?$AAh?$AA?9?$AAk?$AAo?$AAr?$AAe?$AAa?$AA?$AA@ 1004ae3c     libucrt:get_qualified_locale.obj
 0002:00006e54       ??_C@_1CE@PLHLOMJF@?$AAt?$AAr?$AAi?$AAn?$AAi?$AAd?$AAa?$AAd?$AA?5?$AA?$CG?$AA?5?$AAt?$AAo?$AAb?$AAa?$AAg?$AAo?$AA?$AA@ 1004ae54     libucrt:get_qualified_locale.obj
 0002:00006e78       ??_C@_1BO@MODIMHHI@?$AAu?$AAn?$AAi?$AAt?$AAe?$AAd?$AA?9?$AAk?$AAi?$AAn?$AAg?$AAd?$AAo?$AAm?$AA?$AA@ 1004ae78     libucrt:get_qualified_locale.obj
 0002:00006e98       ??_C@_1BM@FFHJONBJ@?$AAu?$AAn?$AAi?$AAt?$AAe?$AAd?$AA?9?$AAs?$AAt?$AAa?$AAt?$AAe?$AAs?$AA?$AA@ 1004ae98     libucrt:get_qualified_locale.obj
 0002:00006eb8       ___acrt_rg_language        1004aeb8     libucrt:get_qualified_locale.obj
 0002:000071c4       ___acrt_rg_language_count  1004b1c4     libucrt:get_qualified_locale.obj
 0002:000071c8       ___acrt_rg_country         1004b1c8     libucrt:get_qualified_locale.obj
 0002:000072dc       ___acrt_rg_country_count   1004b2dc     libucrt:get_qualified_locale.obj
 0002:000072e0       ??_C@_17DNCLJFIF@?$AAA?$AAC?$AAP?$AA?$AA@ 1004b2e0     libucrt:get_qualified_locale.obj
 0002:000072e8       ??_C@_17CIKBIHLH@?$AAO?$AAC?$AAP?$AA?$AA@ 1004b2e8     libucrt:get_qualified_locale.obj
 0002:000072f0       ___rglangidNotDefault      1004b2f0     libucrt:getqloc_downlevel.obj
 0002:00007304       ??_C@_05DNEBIAHO@1?$CDINF?$AA@ 1004b304     libucrt:cfout.obj
 0002:0000730c       ??_C@_06IMKFLFPG@1?$CDQNAN?$AA@ 1004b30c     libucrt:cfout.obj
 0002:00007314       ??_C@_06PGGFOGJG@1?$CDSNAN?$AA@ 1004b314     libucrt:cfout.obj
 0002:0000731c       ??_C@_05PHHOCPM@1?$CDIND?$AA@ 1004b31c     libucrt:cfout.obj
 0002:00008168       ___acrt_pow_rcp_t1         1004c168     libucrt:pow_tables.obj
 0002:00008580       ___acrt_pow_log2_t1        1004c580     libucrt:pow_tables.obj
 0002:00008d90       ___acrt_pow_rcp_t2         1004cd90     libucrt:pow_tables.obj
 0002:000091a0       ___acrt_pow_log2_t2        1004d1a0     libucrt:pow_tables.obj
 0002:000099b0       ___acrt_pow_rcp_t3         1004d9b0     libucrt:pow_tables.obj
 0002:0000a1c0       ___acrt_pow_log2_t3        1004e1c0     libucrt:pow_tables.obj
 0002:0000b1d0       ___acrt_pow_clv            1004f1d0     libucrt:pow_tables.obj
 0002:0000b1f0       ___acrt_pow_exp2_tbl       1004f1f0     libucrt:pow_tables.obj
 0002:0000ba48       ??_C@_1BA@BALFACEM@?$AAC?$AAO?$AAN?$AAO?$AAU?$AAT?$AA$?$AA?$AA@ 1004fa48     libucrt:initcon.obj
 0002:0000bb60       ___acrt_log10_table_t      1004fb60     libucrt:log10_tables.obj
 0002:0000bf70       ___acrt_log10_table_cb     1004ff70     libucrt:log10_tables.obj
 0002:0000c380       ??_C@_1JC@JGKBHLND@?$AAC?$AA?3?$AA?2?$AAU?$AAs?$AAe?$AAr?$AAs?$AA?2?$AAD?$AAe?$AAn?$AAi?$AAs?$AA?2?$AA?4?$AAe?$AAl?$AAe?$AAc?$AAt?$AAr?$AAo?$AAn?$AA?9?$AAg?$AAy?$AAp?$AA?2?$AA?4?$AAn?$AAo@ 10050380     nodehun.obj
 0002:0000c414       ??_C@_1DG@OKCGPKIB@?$AAp?$AAe?$AAr?$AAs?$AAi?$AAs?$AAt?$AAe?$AAn?$AAt?$AA?$CI?$AA?$CJ?$AA?4?$AAI?$AAs?$AAN?$AAe?$AAa?$AAr?$AAD?$AAe?$AAa?$AAt?$AAh?$AA?$CI?$AA?$CJ?$AA?$AA@ 10050414     nodehun.obj
 0002:0000c44c       ??_C@_1CO@EGNPJLKI@?$AAp?$AAe?$AAr?$AAs?$AAi?$AAs?$AAt?$AAe?$AAn?$AAt?$AA?$CI?$AA?$CJ?$AA?4?$AAI?$AAs?$AAE?$AAm?$AAp?$AAt?$AAy?$AA?$CI?$AA?$CJ?$AA?$AA@ 1005044c     nodehun.obj
 0002:0000c480       ??_C@_1EC@NOLNIHNJ@?$AAh?$AAa?$AAn?$AAd?$AAl?$AAe?$AA?9?$AA?$DO?$AAI?$AAn?$AAt?$AAe?$AAr?$AAn?$AAa?$AAl?$AAF?$AAi?$AAe?$AAl?$AAd?$AAC?$AAo?$AAu?$AAn?$AAt?$AA?$CI?$AA?$CJ?$AA?5?$AA?$DO?$AA?5?$AA0@ 10050480     nodehun.obj
 0002:0000c4c4       ??_C@_1DA@FBGAEOIO@?$AA?$CB?$AAp?$AAe?$AAr?$AAs?$AAi?$AAs?$AAt?$AAe?$AAn?$AAt?$AA?$CI?$AA?$CJ?$AA?4?$AAI?$AAs?$AAE?$AAm?$AAp?$AAt?$AAy?$AA?$CI?$AA?$CJ?$AA?$AA@ 100504c4     nodehun.obj
 0002:0000c4f4       ??_C@_1CO@JCKLEFMA@?$AA?$CB?$AAp?$AAe?$AAr?$AAs?$AAi?$AAs?$AAt?$AAe?$AAn?$AAt?$AA?$CI?$AA?$CJ?$AA?4?$AAI?$AAs?$AAW?$AAe?$AAa?$AAk?$AA?$CI?$AA?$CJ?$AA?$AA@ 100504f4     nodehun.obj
 0002:0000c524       ??_C@_1BE@GMLLOIPJ@?$AAr?$AAe?$AAf?$AAs?$AA_?$AA?5?$AA?$DO?$AA?5?$AA0?$AA?$AA@ 10050524     nodehun.obj
 0002:0000c538       ??_C@_1CC@GBFLAAPF@?$AAw?$AAr?$AAa?$AAp?$AA?9?$AA?$DO?$AAr?$AAe?$AAf?$AAs?$AA_?$AA?5?$AA?$DN?$AA?$DN?$AA?5?$AA0?$AA?$AA@ 10050538     nodehun.obj
 0002:0000c55c       ??_C@_0BC@CGNNBJNI@NodehunDictionary?$AA@ 1005055c     nodehun.obj
 0002:0000c570       ??_C@_0BB@BHMEDFJC@createNewNodehun?$AA@ 10050570     nodehun.obj
 0002:0000c584       ??_C@_09OKIHGPPO@isCorrect?$AA@ 10050584     nodehun.obj
 0002:0000c590       ??_C@_0O@HEDCGMCA@isCorrectSync?$AA@ 10050590     nodehun.obj
 0002:0000c5a0       ??_C@_0N@MJPGHGCL@spellSuggest?$AA@ 100505a0     nodehun.obj
 0002:0000c5b0       ??_C@_0BB@OCAMIELB@spellSuggestSync?$AA@ 100505b0     nodehun.obj
 0002:0000c5c4       ??_C@_0BB@DGCNDOIE@spellSuggestions?$AA@ 100505c4     nodehun.obj
 0002:0000c5d8       ??_C@_0BF@MGEDKCMD@spellSuggestionsSync?$AA@ 100505d8     nodehun.obj
 0002:0000c5f0       ??_C@_0O@DHIDPLHG@addDictionary?$AA@ 100505f0     nodehun.obj
 0002:0000c600       ??_C@_0BC@DKMLIJLF@addDictionarySync?$AA@ 10050600     nodehun.obj
 0002:0000c614       ??_C@_07NFJCEDBK@addWord?$AA@ 10050614     nodehun.obj
 0002:0000c61c       ??_C@_0M@JNKLMOOC@addWordSync?$AA@ 1005061c     nodehun.obj
 0002:0000c628       ??_C@_0L@MJAMCDBK@removeWord?$AA@ 10050628     nodehun.obj
 0002:0000c634       ??_C@_0P@COLPPOBJ@removeWordSync?$AA@ 10050634     nodehun.obj
 0002:0000c644       ??_C@_04PNLNLJBH@stem?$AA@ 10050644     nodehun.obj
 0002:0000c64c       ??_C@_08PADLHAKO@stemSync?$AA@ 1005064c     nodehun.obj
 0002:0000c658       ??_C@_08HBLFHMBF@generate?$AA@ 10050658     nodehun.obj
 0002:0000c664       ??_C@_0N@OBIBKJIN@generateSync?$AA@ 10050664     nodehun.obj
 0002:0000c674       ??_C@_07JFKEGMMK@analyze?$AA@ 10050674     nodehun.obj
 0002:0000c67c       ??_C@_0M@HHCOKGED@analyzeSync?$AA@ 1005067c     nodehun.obj
 0002:0000c688       ??_C@_07FLMNHPPG@exports?$AA@ 10050688     nodehun.obj
 0002:0000c690       ??_C@_0CA@LFHFNPL@First?5argument?5must?5be?5a?5buffer?$AA@ 10050690     nodehun.obj
 0002:0000c6b0       ??_C@_0CB@CADFKPNI@Second?5argument?5must?5be?5a?5buffer@ 100506b0     nodehun.obj
 0002:0000c6d4       ??_C@_0DL@BKMCIBJE@Use?5the?5new?5operator?5to?5create?5a@ 100506d4     nodehun.obj
 0002:0000c710       ??_C@_0CE@MEIIEPMO@Constructor?5requires?5two?5argumen@ 10050710     nodehun.obj
 0002:0000c734       ??_C@_0CA@PHEBDBMF@First?5argument?5must?5be?5a?5string?$AA@ 10050734     nodehun.obj
 0002:0000c754       ??_C@_0CB@OAPOHOCC@First?5argument?5must?5be?5a?5string?4@ 10050754     nodehun.obj
 0002:0000c778       ??_C@_0CB@CBGDHFOF@First?5argument?5must?5be?5a?5buffer?4@ 10050778     nodehun.obj
 0002:0000c7a0       ??_C@_0GA@KLOBHEPM@There?5was?5an?5error?5adding?5the?5di@ 100507a0     nodehun.obj
 0002:0000c800       ??_C@_0HC@HDBMPCEB@There?5was?5an?5error?5changing?5the?5@ 10050800     nodehun.obj
 0002:0000c874       ??_C@_0CB@NMCDMDOG@Second?5argument?5must?5be?5a?5string@ 10050874     nodehun.obj
 0002:0000c898       ??_C@_0CN@GPFMMNGL@First?5and?5second?5arguments?5must?5@ 10050898     nodehun.obj
 0002:0000c8c8       ??_C@_0FD@OEHMNKDK@c?3?2bakalarka?2hunspell?9spellcheck@ 100508c8     nodehun.obj
 0002:0000c91c       ??_C@_07LHCDCIBM@nodehun?$AA@ 1005091c     nodehun.obj
 0002:0000c924       ??_C@_0BA@JFNIOLAK@string?5too?5long?$AA@ 10050924     nodehun.obj
 0002:0000c934       ??_C@_0BI@CFPLBAOH@invalid?5string?5position?$AA@ 10050934     nodehun.obj
 0002:0000c94c       ??_C@_1CE@IAEMMFJ@?$AA?$CB?$AAh?$AAa?$AAn?$AAd?$AAl?$AAe?$AA?4?$AAI?$AAs?$AAE?$AAm?$AAp?$AAt?$AAy?$AA?$CI?$AA?$CJ?$AA?$AA@ 1005094c     nodehun.obj
 0002:0000c970       ??_7ObjectWrap@node@@6B@   10050970     nodehun.obj
 0002:0000c97c       ??_7SpellDictionary@Nodehun@@6B@ 1005097c     nodehun.obj
 0002:0000c988       ??_C@_02FCBLNKNB@ss?$AA@   10050988     hunspell:hunspell.obj
 0002:0000c98c       ??_C@_07IPEFHOCE@?$DM?$DPxml?$DP?$DO?$AA@ 1005098c     hunspell:hunspell.obj
 0002:0000c994       ??_C@_02PPNCLIJD@SS?$AA@   10050994     hunspell:hunspell.obj
 0002:0000c998       ??_C@_02GFIOJICB@?C?$JP?$AA@ 10050998     hunspell:hunspell.obj
 0002:0000c99c       ??_C@_01JOAMLHOP@?9?$AA@   1005099c     hunspell:hunspell.obj
 0002:0000c9a0       ??_C@_01LIIGDENA@?$NP?$AA@ 100509a0     hunspell:hunspell.obj
 0002:0000c9a4       ??_C@_03NJDIPPBB@pa?3?$AA@ 100509a4     hunspell:hunspell.obj
 0002:0000c9a8       ??_C@_03LGOGDKEL@?5?$HM?5?$AA@ 100509a8     hunspell:hunspell.obj
 0002:0000c9ac       ??_C@_03BJOBEIMH@ds?3?$AA@ 100509ac     hunspell:hunspell.obj
 0002:0000c9b0       ??_C@_03OLILJABK@is?3?$AA@ 100509b0     hunspell:hunspell.obj
 0002:0000c9b4       ??_C@_06DLEJEKHG@?$CFc?$CFs?$CFs?$AA@ 100509b4     hunspell:hunspell.obj
 0002:0000c9bc       ??_C@_04CDPLFOEF@?$CFc?$CFs?$AA@ 100509bc     hunspell:hunspell.obj
 0002:0000c9c4       ??_C@_03NGGJJJLI@sp?3?$AA@ 100509c4     hunspell:hunspell.obj
 0002:0000c9c8       ??_C@_03NBGADBGE@st?3?$AA@ 100509c8     hunspell:hunspell.obj
 0002:0000c9cc       ??_C@_01EEMJAFIK@?6?$AA@   100509cc     hunspell:hunspell.obj
 0002:0000c9d0       ??_C@_01MIFGBAGJ@?$CL?$AA@ 100509d0     hunspell:hunspell.obj
 0002:0000c9d4       ??_C@_02CIKBGMLM@?9e?$AA@  100509d4     hunspell:hunspell.obj
 0002:0000c9d8       ??_C@_01MNNFJEPP@?$DM?$AA@ 100509d8     hunspell:hunspell.obj
 0002:0000c9dc       ??_C@_04GJOGLFEJ@?$CGlt?$DL?$AA@ 100509dc     hunspell:hunspell.obj
 0002:0000c9e4       ??_C@_01HNPIGOCE@?$CG?$AA@ 100509e4     hunspell:hunspell.obj
 0002:0000c9e8       ??_C@_05JKJFEODM@?$CGamp?$DL?$AA@ 100509e8     hunspell:hunspell.obj
 0002:0000c9f0       ??_C@_06FJGMCHMM@?$DMquery?$AA@ 100509f0     hunspell:hunspell.obj
 0002:0000c9f8       ??_C@_05EDNGFAJN@?$DMword?$AA@ 100509f8     hunspell:hunspell.obj
 0002:0000ca00       ??_C@_05GFIHHCNM@type?$DN?$AA@ 10050a00     hunspell:hunspell.obj
 0002:0000ca08       ??_C@_06CDMPAACN@?$DMcode?$DO?$AA@ 10050a08     hunspell:hunspell.obj
 0002:0000ca10       ??_C@_03GMJGNNJA@?$DMa?$DO?$AA@ 10050a10     hunspell:hunspell.obj
 0002:0000ca14       ??_C@_01CLKCMJKC@?5?$AA@   10050a14     hunspell:hunspell.obj
 0002:0000ca18       ??_C@_01GPOEFGEJ@?7?$AA@   10050a18     hunspell:hunspell.obj
 0002:0000ca1c       ??_C@_04KNINFIGH@?$DM?1a?$DO?$AA@ 10050a1c     hunspell:hunspell.obj
 0002:0000ca24       ??_C@_07FPNFMAFL@?$DM?1code?$DO?$AA@ 10050a24     hunspell:hunspell.obj
 0002:0000ca2c       ??_C@_05NHAGIPFM@?$DMcode?$AA@ 10050a2c     hunspell:hunspell.obj
 0002:0000ca38       ??_C@_0FD@EEPPDLMD@UTF?98?5encoding?5error?4?5Unexpected@ 10050a38     hunspell:csutil.obj
 0002:0000ca90       ??_C@_0FA@FLAHNLML@UTF?98?5encoding?5error?4?5Missing?5co@ 10050a90     hunspell:csutil.obj
 0002:0000cae0       ??_C@_0DB@DOKALABA@This?5UTF?98?5encoding?5can?8t?5conver@ 10050ae0     hunspell:csutil.obj
 0002:0000cb14       ??_C@_02HAOIJKIC@?$CFc?$AA@ 10050b14     hunspell:csutil.obj
 0002:0000cb18       ??_C@_04HDOCAJNK@?$CFs?$CFs?$AA@ 10050b18     hunspell:csutil.obj
 0002:0000cb20       ??_C@_03EJPIBPFI@ts?3?$AA@ 10050b20     hunspell:csutil.obj
 0002:0000cb24       ??_C@_08OFHNNBGI@iso88591?$AA@ 10050b24     hunspell:csutil.obj
 0002:0000cb30       ??_C@_08MOFAICKL@iso88592?$AA@ 10050b30     hunspell:csutil.obj
 0002:0000cb3c       ??_C@_08NHELLDOK@iso88593?$AA@ 10050b3c     hunspell:csutil.obj
 0002:0000cb48       ??_C@_08JIAKCFCN@iso88594?$AA@ 10050b48     hunspell:csutil.obj
 0002:0000cb54       ??_C@_08IBBBBEGM@iso88595?$AA@ 10050b54     hunspell:csutil.obj
 0002:0000cb60       ??_C@_08KKDMEHKP@iso88596?$AA@ 10050b60     hunspell:csutil.obj
 0002:0000cb6c       ??_C@_08LDCHHGOO@iso88597?$AA@ 10050b6c     hunspell:csutil.obj
 0002:0000cb78       ??_C@_08DELPGKCB@iso88598?$AA@ 10050b78     hunspell:csutil.obj
 0002:0000cb84       ??_C@_08CNKEFLGA@iso88599?$AA@ 10050b84     hunspell:csutil.obj
 0002:0000cb90       ??_C@_09JMMKKCEI@iso885910?$AA@ 10050b90     hunspell:csutil.obj
 0002:0000cb9c       ??_C@_06MGNELAEE@tis620?$AA@ 10050b9c     hunspell:csutil.obj
 0002:0000cba4       ??_C@_0L@IICJILGI@tis6202533?$AA@ 10050ba4     hunspell:csutil.obj
 0002:0000cbb0       ??_C@_09IFNBJDAJ@iso885911?$AA@ 10050bb0     hunspell:csutil.obj
 0002:0000cbbc       ??_C@_09LHOHPBIL@iso885913?$AA@ 10050bbc     hunspell:csutil.obj
 0002:0000cbc8       ??_C@_09PIKGGHEM@iso885914?$AA@ 10050bc8     hunspell:csutil.obj
 0002:0000cbd4       ??_C@_09OBLNFGAN@iso885915?$AA@ 10050bd4     hunspell:csutil.obj
 0002:0000cbe0       ??_C@_05EGDDFGIM@koi8r?$AA@ 10050be0     hunspell:csutil.obj
 0002:0000cbe8       ??_C@_05JHCMAEL@koi8u?$AA@ 10050be8     hunspell:csutil.obj
 0002:0000cbf0       ??_C@_06PBHBPKON@cp1251?$AA@ 10050bf0     hunspell:csutil.obj
 0002:0000cbf8       ??_C@_0BA@LEHMGPJL@microsoftcp1251?$AA@ 10050bf8     hunspell:csutil.obj
 0002:0000cc08       ??_C@_08FBMCKANJ@xisciias?$AA@ 10050c08     hunspell:csutil.obj
 0002:0000cc14       ??_C@_0BA@DHKGCHKD@isciidevanagari?$AA@ 10050c14     hunspell:csutil.obj
 0002:0000cc24       ??_C@_0DC@GDCCJAFK@error?3?5unknown?5encoding?5?$CFs?3?5usin@ 10050c24     hunspell:csutil.obj
 0002:0000cc58       ??_C@_02FEKCJMIO@ar?$AA@   10050c58     hunspell:csutil.obj
 0002:0000cc5c       ??_C@_02JMHLBGIG@az?$AA@   10050c5c     hunspell:csutil.obj
 0002:0000cc60       ??_C@_05JMJFDHBA@az_AZ?$AA@ 10050c60     hunspell:csutil.obj
 0002:0000cc68       ??_C@_02GBFBMEMD@bg?$AA@   10050c68     hunspell:csutil.obj
 0002:0000cc6c       ??_C@_02DGMJAJHC@ca?$AA@   10050c6c     hunspell:csutil.obj
 0002:0000cc70       ??_C@_02EODNHJKB@cs?$AA@   10050c70     hunspell:csutil.obj
 0002:0000cc74       ??_C@_02DDIGBPPH@da?$AA@   10050c74     hunspell:csutil.obj
 0002:0000cc78       ??_C@_02FHOKNKPD@de?$AA@   10050c78     hunspell:csutil.obj
 0002:0000cc7c       ??_C@_02IHOKALIN@el?$AA@   10050c7c     hunspell:csutil.obj
 0002:0000cc80       ??_C@_02LFNMGJAP@en?$AA@   10050c80     hunspell:csutil.obj
 0002:0000cc84       ??_C@_02EKLAAFBD@es?$AA@   10050c84     hunspell:csutil.obj
 0002:0000cc88       ??_C@_02BMOKKCJF@eu?$AA@   10050c88     hunspell:csutil.obj
 0002:0000cc8c       ??_C@_02IEGONPOD@gl?$AA@   10050c8c     hunspell:csutil.obj
 0002:0000cc90       ??_C@_02FBONIKAL@fr?$AA@   10050c90     hunspell:csutil.obj
 0002:0000cc94       ??_C@_02FLHDKHAB@hr?$AA@   10050c94     hunspell:csutil.obj
 0002:0000cc98       ??_C@_02BEDCDBMG@hu?$AA@   10050c98     hunspell:csutil.obj
 0002:0000cc9c       ??_C@_05LBIDNGEJ@hu_HU?$AA@ 10050c9c     hunspell:csutil.obj
 0002:0000cca4       ??_C@_02MOLGKLA@it?$AA@    10050ca4     hunspell:csutil.obj
 0002:0000cca8       ??_C@_02DNJFEOEP@la?$AA@   10050ca8     hunspell:csutil.obj
 0002:0000ccac       ??_C@_02DIBGMKNJ@lv?$AA@   10050cac     hunspell:csutil.obj
 0002:0000ccb0       ??_C@_02ILLPOEGM@nl?$AA@   10050cb0     hunspell:csutil.obj
 0002:0000ccb4       ??_C@_02JNAHGKBG@pl?$AA@   10050cb4     hunspell:csutil.obj
 0002:0000ccb8       ??_C@_02BPBMPCEP@pt?$AA@   10050cb8     hunspell:csutil.obj
 0002:0000ccbc       ??_C@_02CPGMCOJE@sv?$AA@   10050cbc     hunspell:csutil.obj
 0002:0000ccc0       ??_C@_02EOEPPNBF@tr?$AA@   10050cc0     hunspell:csutil.obj
 0002:0000ccc4       ??_C@_05CNMKAEGK@tr_TR?$AA@ 10050cc4     hunspell:csutil.obj
 0002:0000cccc       ??_C@_02FIDBHGA@ru?$AA@    10050ccc     hunspell:csutil.obj
 0002:0000ccd0       ??_C@_02NEINDODK@uk?$AA@   10050cd0     hunspell:csutil.obj
 0002:0000ccd4       ??_C@_03NGOJMEJO@ph?3?$AA@ 10050cd4     hunspell:hashmgr.obj
 0002:0000ccd8       ??_C@_03PKPBNCAL@?o?$LL?$LP?$AA@ 10050cd8     hunspell:hashmgr.obj
 0002:0000ccdc       ??_C@_06LHGEHABH@?$CINULL?$CJ?$AA@ 10050cdc     hunspell:hashmgr.obj
 0002:0000cce4       ??_C@_02DPKJAMEF@?$CFd?$AA@ 10050ce4     hunspell:hashmgr.obj
 0002:0000cce8       ??_C@_0DC@GBGBFMCI@Error?5?9?5could?5not?5open?5affix?5des@ 10050ce8     hunspell:hashmgr.obj
 0002:0000cd1c       ??_C@_04PBMMHMLL@FLAG?$AA@ 10050d1c     hunspell:hashmgr.obj
 0002:0000cd24       ??_C@_04GOKPGOLB@long?$AA@ 10050d24     hunspell:hashmgr.obj
 0002:0000cd2c       ??_C@_03IHCLBPIC@num?$AA@  10050d2c     hunspell:hashmgr.obj
 0002:0000cd30       ??_C@_05EGJIMALK@UTF?98?$AA@ 10050d30     hunspell:hashmgr.obj
 0002:0000cd38       ??_C@_0O@IOKILCIH@FORBIDDENWORD?$AA@ 10050d38     hunspell:hashmgr.obj
 0002:0000cd48       ??_C@_03KPIFFHNE@SET?$AA@  10050d48     hunspell:hashmgr.obj
 0002:0000cd4c       ??_C@_04ECEKPLPK@LANG?$AA@ 10050d4c     hunspell:hashmgr.obj
 0002:0000cd54       ??_C@_06GHNPMFCC@IGNORE?$AA@ 10050d54     hunspell:hashmgr.obj
 0002:0000cd5c       ??_C@_02NHMFCJJJ@AF?$AA@   10050d5c     hunspell:hashmgr.obj
 0002:0000cd60       ??_C@_02DEDBPAFC@AM?$AA@   10050d60     hunspell:hashmgr.obj
 0002:0000cd64       ??_C@_0BA@FLADCNFC@COMPLEXPREFIXES?$AA@ 10050d64     hunspell:hashmgr.obj
 0002:0000cd74       ??_C@_03BHGKGIB@SFX?$AA@   10050d74     hunspell:hashmgr.obj
 0002:0000cd78       ??_C@_03BDMDAJGP@PFX?$AA@  10050d78     hunspell:hashmgr.obj
 0002:0000cd7c       ??_C@_09KEDHCKDI@ISO8859?91?$AA@ 10050d7c     hunspell:hashmgr.obj
 0002:0000cd88       ??_C@_01IDAFKMJL@_?$AA@    10050d88     hunspell:replist.obj
 0002:0000cd8a       ??_C@_00CNPNBAHC@?$AA@     10050d8a     hunspell:suggestmgr.obj
 0002:0000cd8c       ??_C@_03DJEFFMLI@al?3?$AA@ 10050d8c     hunspell:suggestmgr.obj
 0002:0000cd94       ??_C@_0BN@NNBJIGA@Failure?5loading?5aff?5file?5?$CFs?6?$AA@ 10050d94     hunspell:affixmgr.obj
 0002:0000cdb4       ??_C@_0DB@PNJHIABK@error?3?5could?5not?5open?5affix?5desc@ 10050db4     hunspell:affixmgr.obj
 0002:0000cde8       ??_C@_03IPIGFGOJ@KEY?$AA@  10050de8     hunspell:affixmgr.obj
 0002:0000cdec       ??_C@_03JOJFKENF@TRY?$AA@  10050dec     hunspell:affixmgr.obj
 0002:0000cdf0       ??_C@_0N@ECPCLNEK@COMPOUNDFLAG?$AA@ 10050df0     hunspell:affixmgr.obj
 0002:0000ce00       ??_C@_0O@EBMFGKAJ@COMPOUNDBEGIN?$AA@ 10050e00     hunspell:affixmgr.obj
 0002:0000ce10       ??_C@_0P@MDFHAAHP@COMPOUNDMIDDLE?$AA@ 10050e10     hunspell:affixmgr.obj
 0002:0000ce20       ??_C@_0M@MENLHNNP@COMPOUNDEND?$AA@ 10050e20     hunspell:affixmgr.obj
 0002:0000ce2c       ??_C@_0BA@FGIKNKBH@COMPOUNDWORDMAX?$AA@ 10050e2c     hunspell:affixmgr.obj
 0002:0000ce3c       ??_C@_0N@KOFGEPHO@COMPOUNDROOT?$AA@ 10050e3c     hunspell:affixmgr.obj
 0002:0000ce4c       ??_C@_0BD@CJKDCLAB@COMPOUNDPERMITFLAG?$AA@ 10050e4c     hunspell:affixmgr.obj
 0002:0000ce60       ??_C@_0BD@KCDEKFHH@COMPOUNDFORBIDFLAG?$AA@ 10050e60     hunspell:affixmgr.obj
 0002:0000ce74       ??_C@_0BB@DNNBNILN@CHECKCOMPOUNDDUP?$AA@ 10050e74     hunspell:affixmgr.obj
 0002:0000ce88       ??_C@_0BB@FEIFHDIO@CHECKCOMPOUNDREP?$AA@ 10050e88     hunspell:affixmgr.obj
 0002:0000ce9c       ??_C@_0BE@FNBLFJOI@CHECKCOMPOUNDTRIPLE?$AA@ 10050e9c     hunspell:affixmgr.obj
 0002:0000ceb0       ??_C@_0BB@NOKHNNAJ@SIMPLIFIEDTRIPLE?$AA@ 10050eb0     hunspell:affixmgr.obj
 0002:0000cec4       ??_C@_0BC@FHPOAHCI@CHECKCOMPOUNDCASE?$AA@ 10050ec4     hunspell:affixmgr.obj
 0002:0000ced8       ??_C@_09NDAAEAEC@NOSUGGEST?$AA@ 10050ed8     hunspell:affixmgr.obj
 0002:0000cee4       ??_C@_0P@CLEDNPFG@NONGRAMSUGGEST?$AA@ 10050ee4     hunspell:affixmgr.obj
 0002:0000cef4       ??_C@_0O@EDHKHHJK@LEMMA_PRESENT?$AA@ 10050ef4     hunspell:affixmgr.obj
 0002:0000cf04       ??_C@_09DGFPGGGH@CIRCUMFIX?$AA@ 10050f04     hunspell:affixmgr.obj
 0002:0000cf10       ??_C@_0P@GBHPFHDD@ONLYINCOMPOUND?$AA@ 10050f10     hunspell:affixmgr.obj
 0002:0000cf20       ??_C@_0L@FNNJHKCI@PSEUDOROOT?$AA@ 10050f20     hunspell:affixmgr.obj
 0002:0000cf2c       ??_C@_09HJNLGJOD@NEEDAFFIX?$AA@ 10050f2c     hunspell:affixmgr.obj
 0002:0000cf38       ??_C@_0M@POMPKLDP@COMPOUNDMIN?$AA@ 10050f38     hunspell:affixmgr.obj
 0002:0000cf44       ??_C@_0BB@POGLPBEA@COMPOUNDSYLLABLE?$AA@ 10050f44     hunspell:affixmgr.obj
 0002:0000cf58       ??_C@_0M@PKFNAMOA@SYLLABLENUM?$AA@ 10050f58     hunspell:affixmgr.obj
 0002:0000cf64       ??_C@_08OACGLEJC@CHECKNUM?$AA@ 10050f64     hunspell:affixmgr.obj
 0002:0000cf70       ??_C@_09NNJIMDOE@WORDCHARS?$AA@ 10050f70     hunspell:affixmgr.obj
 0002:0000cf7c       ??_C@_03HDFFPFLF@REP?$AA@  10050f7c     hunspell:affixmgr.obj
 0002:0000cf80       ??_C@_05CMKLDFBC@ICONV?$AA@ 10050f80     hunspell:affixmgr.obj
 0002:0000cf88       ??_C@_05PKPCNGAP@OCONV?$AA@ 10050f88     hunspell:affixmgr.obj
 0002:0000cf90       ??_C@_05BOENBGMC@PHONE?$AA@ 10050f90     hunspell:affixmgr.obj
 0002:0000cf98       ??_C@_0BF@DMKDNGML@CHECKCOMPOUNDPATTERN?$AA@ 10050f98     hunspell:affixmgr.obj
 0002:0000cfb0       ??_C@_0N@MAGNGFMM@COMPOUNDRULE?$AA@ 10050fb0     hunspell:affixmgr.obj
 0002:0000cfc0       ??_C@_03HMCGBKKA@MAP?$AA@  10050fc0     hunspell:affixmgr.obj
 0002:0000cfc4       ??_C@_05IAGBLAKG@BREAK?$AA@ 10050fc4     hunspell:affixmgr.obj
 0002:0000cfcc       ??_C@_07NCHCCDCP@VERSION?$AA@ 10050fcc     hunspell:affixmgr.obj
 0002:0000cfd4       ??_C@_0N@HIILJKBG@MAXNGRAMSUGS?$AA@ 10050fd4     hunspell:affixmgr.obj
 0002:0000cfe4       ??_C@_0M@DBPGOAFP@ONLYMAXDIFF?$AA@ 10050fe4     hunspell:affixmgr.obj
 0002:0000cff0       ??_C@_07LDLPPDDC@MAXDIFF?$AA@ 10050ff0     hunspell:affixmgr.obj
 0002:0000cff8       ??_C@_0L@EGHLCOJB@MAXCPDSUGS?$AA@ 10050ff8     hunspell:affixmgr.obj
 0002:0000d004       ??_C@_0M@GHCELONK@NOSPLITSUGS?$AA@ 10051004     hunspell:affixmgr.obj
 0002:0000d010       ??_C@_09KJPABDJI@FULLSTRIP?$AA@ 10051010     hunspell:affixmgr.obj
 0002:0000d01c       ??_C@_0N@MNBEHADM@SUGSWITHDOTS?$AA@ 1005101c     hunspell:affixmgr.obj
 0002:0000d02c       ??_C@_08OBPONOED@KEEPCASE?$AA@ 1005102c     hunspell:affixmgr.obj
 0002:0000d038       ??_C@_0L@KLPNJIJO@FORCEUCASE?$AA@ 10051038     hunspell:affixmgr.obj
 0002:0000d044       ??_C@_04JBIELMDE@WARN?$AA@ 10051044     hunspell:affixmgr.obj
 0002:0000d04c       ??_C@_0L@BPCLKBPE@FORBIDWARN?$AA@ 1005104c     hunspell:affixmgr.obj
 0002:0000d058       ??_C@_0M@GEACDDMH@SUBSTANDARD?$AA@ 10051058     hunspell:affixmgr.obj
 0002:0000d064       ??_C@_0M@EMKMGEHL@CHECKSHARPS?$AA@ 10051064     hunspell:affixmgr.obj
 0002:0000d070       ??_C@_02EGLGHPLI@?$FO?9?$AA@ 10051070     hunspell:affixmgr.obj
 0002:0000d074       ??_C@_02MBMDBCPI@?9$?$AA@  10051074     hunspell:affixmgr.obj
 0002:0000d078       ??_C@_03KEJCGEAB@fl?3?$AA@ 10051078     hunspell:affixmgr.obj
 0002:0000d07c       ??_C@_01LFCBOECM@?4?$AA@   1005107c     hunspell:affixmgr.obj
 0002:0000d080       ??_C@_08NFPIODIJ@?$CFc?$CFs?$CFs?$CFs?$AA@ 10051080     hunspell:affixmgr.obj
 0002:0000d08c       ??_C@_0BN@DPANBNIL@qwertyuiop?$HMasdfghjkl?$HMzxcvbnm?$AA@ 1005108c     hunspell:affixmgr.obj
 0002:0000d0ac       ??_C@_0L@HLLGMIBA@aeiouAEIOU?$AA@ 100510ac     hunspell:affixmgr.obj
 0002:0000d0b8       ??_C@_0CF@OAPHLBEI@error?3?5line?5?$CFd?3?5affix?5?$CFs?5is?5corr@ 100510b8     hunspell:affixmgr.obj
 0002:0000d0e0       ??_C@_01GBGANLPD@0?$AA@    100510e0     hunspell:affixmgr.obj
 0002:0000d0e4       ??_C@_0CD@MHBOHPNC@error?3?5bad?5affix?5flag?5alias?3?5?$CC?$CFs@ 100510e4     hunspell:affixmgr.obj
 0002:0000d108       ??_C@_0CM@HCAAOIMI@error?3?5line?5?$CFd?3?5missing?5?$FN?5in?5con@ 10051108     hunspell:affixmgr.obj
 0002:0000d134       ??_C@_0CN@JOKFNJDA@error?3?5line?3?5?$CFd?3?5missing?5?$FN?5in?5co@ 10051134     hunspell:affixmgr.obj
 0002:0000d164       ??_C@_0BD@OLBABOEK@vector?$DMT?$DO?5too?5long?$AA@ 10051164     hunspell:affixmgr.obj
 0002:0000d178       ??_C@_0BC@BDKFLDHL@unknown?5exception?$AA@ 10051178     hunspell:strmgr.obj
 0002:0000d18c       ??_C@_02LMMGGCAJ@?3?5?$AA@ 1005118c     hunspell:strmgr.obj
 0002:0000d190       ??_C@_08LLGCOLLL@iostream?$AA@ 10051190     hunspell:strmgr.obj
 0002:0000d19c       ??_C@_0BG@PADBLCHM@iostream?5stream?5error?$AA@ 1005119c     hunspell:strmgr.obj
 0002:0000d1b4       ??_C@_0BF@PHHKMMFD@ios_base?3?3badbit?5set?$AA@ 100511b4     hunspell:strmgr.obj
 0002:0000d1cc       ??_C@_0BG@FMKFHCIL@ios_base?3?3failbit?5set?$AA@ 100511cc     hunspell:strmgr.obj
 0002:0000d1e4       ??_C@_0BF@OOHOMBOF@ios_base?3?3eofbit?5set?$AA@ 100511e4     hunspell:strmgr.obj
 0002:0000d1fc       ??_C@_0CE@DLBHCBKB@Buffer?5allocation?5failed?5in?5StrM@ 100511fc     hunspell:strmgr.obj
 0002:0000d220       ??_C@_0BI@CKHBECJD@error?3?5?$CFs?3?5cannot?5open?6?$AA@ 10051220     hunspell:strmgr.obj
 0002:0000d238       ??_7exception@stdext@@6B@  10051238     hunspell:strmgr.obj
 0002:0000d244       ??_7StrMgr@@6B@            10051244     hunspell:strmgr.obj
 0002:0000d250       ??_7IStrMgr@@6B@           10051250     hunspell:strmgr.obj
 0002:0000d25c       ??_C@_01KDCPPGHE@r?$AA@    1005125c     hunspell:filemgr.obj
 0002:0000d260       ??_C@_03NECPDAK@?4hz?$AA@  10051260     hunspell:filemgr.obj
 0002:0000d264       ??_7FileMgr@@6B@           10051264     hunspell:filemgr.obj
 0002:0000d270       ??_C@_05LBKEJHLH@?$CI?9?$DM?$FO$?$AA@ 10051270     hunspell:phonet.obj
 0002:0000d278       ??_C@_02ECKEFFIN@?$FO?$FO?$AA@ 10051278     hunspell:phonet.obj
 0002:0000d27c       ??_C@_02JDPG@rb?$AA@       1005127c     hunspell:hunzip.obj
 0002:0000d280       ??_C@_03KGAJCEHK@hz0?$AA@  10051280     hunspell:hunzip.obj
 0002:0000d284       ??_C@_03LPBCBFDL@hz1?$AA@  10051284     hunspell:hunzip.obj
 0002:0000d288       ??_C@_0BP@DAEACJGO@error?3?5?$CFs?3?5not?5in?5hzip?5format?6?$AA@ 10051288     hunspell:hunzip.obj
 0002:0000d2a8       ??_C@_0CE@NCPPEKPN@error?3?5?$CFs?3?5missing?5or?5bad?5passwo@ 100512a8     hunspell:hunzip.obj
 0002:0000d2cc       ??_C@_0BL@FJFIEOJK@error?3?5?$CFs?3?5missing?5memory?6?$AA@ 100512cc     hunspell:hunzip.obj
 0002:0000d2e8       __real@3ff0000000000000    100512e8     hunspell:suggestmgr.obj
 0002:0000d2f0       __real@4014000000000000    100512f0     hunspell:suggestmgr.obj
 0002:0000d2f8       __real@4024000000000000    100512f8     hunspell:suggestmgr.obj
 0002:0000d300       __xmm@00000003000000020000000100000000 10051300     hunspell:suggestmgr.obj
 0002:0000d310       __xmm@ffffff9cffffff9cffffff9cffffff9c 10051310     hunspell:suggestmgr.obj
 0002:0000d378       __load_config_used         10051378     LIBCMT:loadcfg.obj
 0002:0000d3d4       __tls_used                 100513d4     LIBCMT:tlssup.obj
 0002:0000d3ec       ??_R4exception@std@@6B@    100513ec     libcpmt:xthrow.obj
 0002:0000d400       ??_R3exception@std@@8      10051400     libcpmt:xthrow.obj
 0002:0000d410       ??_R2exception@std@@8      10051410     libcpmt:xthrow.obj
 0002:0000d418       ??_R1A@?0A@EA@exception@std@@8 10051418     libcpmt:xthrow.obj
 0002:0000d434       ??_R4bad_alloc@std@@6B@    10051434     libcpmt:xthrow.obj
 0002:0000d448       ??_R3bad_alloc@std@@8      10051448     libcpmt:xthrow.obj
 0002:0000d458       ??_R2bad_alloc@std@@8      10051458     libcpmt:xthrow.obj
 0002:0000d464       ??_R1A@?0A@EA@bad_alloc@std@@8 10051464     libcpmt:xthrow.obj
 0002:0000d480       ??_R4logic_error@std@@6B@  10051480     libcpmt:xthrow.obj
 0002:0000d494       ??_R3logic_error@std@@8    10051494     libcpmt:xthrow.obj
 0002:0000d4a4       ??_R2logic_error@std@@8    100514a4     libcpmt:xthrow.obj
 0002:0000d4b0       ??_R1A@?0A@EA@logic_error@std@@8 100514b0     libcpmt:xthrow.obj
 0002:0000d4cc       ??_R4length_error@std@@6B@ 100514cc     libcpmt:xthrow.obj
 0002:0000d4e0       ??_R3length_error@std@@8   100514e0     libcpmt:xthrow.obj
 0002:0000d4f0       ??_R2length_error@std@@8   100514f0     libcpmt:xthrow.obj
 0002:0000d500       ??_R1A@?0A@EA@length_error@std@@8 10051500     libcpmt:xthrow.obj
 0002:0000d51c       ??_R4out_of_range@std@@6B@ 1005151c     libcpmt:xthrow.obj
 0002:0000d530       ??_R3out_of_range@std@@8   10051530     libcpmt:xthrow.obj
 0002:0000d540       ??_R2out_of_range@std@@8   10051540     libcpmt:xthrow.obj
 0002:0000d550       ??_R1A@?0A@EA@out_of_range@std@@8 10051550     libcpmt:xthrow.obj
 0002:0000d56c       ??_R4runtime_error@std@@6B@ 1005156c     libcpmt:xthrow.obj
 0002:0000d580       ??_R3runtime_error@std@@8  10051580     libcpmt:xthrow.obj
 0002:0000d590       ??_R2runtime_error@std@@8  10051590     libcpmt:xthrow.obj
 0002:0000d59c       ??_R1A@?0A@EA@runtime_error@std@@8 1005159c     libcpmt:xthrow.obj
 0002:0000d5b8       ??_R4ios_base@std@@6B@     100515b8     libcpmt:cout.obj
 0002:0000d5cc       ??_R3ios_base@std@@8       100515cc     libcpmt:cout.obj
 0002:0000d5dc       ??_R2ios_base@std@@8       100515dc     libcpmt:cout.obj
 0002:0000d5e8       ??_R1A@?0A@EA@ios_base@std@@8 100515e8     libcpmt:cout.obj
 0002:0000d604       ??_R17?0A@EA@?$_Iosb@H@std@@8 10051604     libcpmt:cout.obj
 0002:0000d620       ??_R3?$_Iosb@H@std@@8      10051620     libcpmt:cout.obj
 0002:0000d630       ??_R2?$_Iosb@H@std@@8      10051630     libcpmt:cout.obj
 0002:0000d638       ??_R1A@?0A@EA@?$_Iosb@H@std@@8 10051638     libcpmt:cout.obj
 0002:0000d654       ??_R4?$basic_ios@DU?$char_traits@D@std@@@std@@6B@ 10051654     libcpmt:cout.obj
 0002:0000d668       ??_R3?$basic_ios@DU?$char_traits@D@std@@@std@@8 10051668     libcpmt:cout.obj
 0002:0000d678       ??_R2?$basic_ios@DU?$char_traits@D@std@@@std@@8 10051678     libcpmt:cout.obj
 0002:0000d688       ??_R1A@?0A@EA@?$basic_ios@DU?$char_traits@D@std@@@std@@8 10051688     libcpmt:cout.obj
 0002:0000d6a4       ??_R4?$basic_streambuf@DU?$char_traits@D@std@@@std@@6B@ 100516a4     libcpmt:cout.obj
 0002:0000d6b8       ??_R3?$basic_streambuf@DU?$char_traits@D@std@@@std@@8 100516b8     libcpmt:cout.obj
 0002:0000d6c8       ??_R2?$basic_streambuf@DU?$char_traits@D@std@@@std@@8 100516c8     libcpmt:cout.obj
 0002:0000d6d0       ??_R1A@?0A@EA@?$basic_streambuf@DU?$char_traits@D@std@@@std@@8 100516d0     libcpmt:cout.obj
 0002:0000d6ec       ??_R1A@A@3FA@?$basic_ios@DU?$char_traits@D@std@@@std@@8 100516ec     libcpmt:cout.obj
 0002:0000d708       ??_R1A@A@3EA@ios_base@std@@8 10051708     libcpmt:cout.obj
 0002:0000d724       ??_R17A@3EA@?$_Iosb@H@std@@8 10051724     libcpmt:cout.obj
 0002:0000d740       ??_R4?$basic_ostream@DU?$char_traits@D@std@@@std@@6B@ 10051740     libcpmt:cout.obj
 0002:0000d754       ??_R3?$basic_ostream@DU?$char_traits@D@std@@@std@@8 10051754     libcpmt:cout.obj
 0002:0000d764       ??_R2?$basic_ostream@DU?$char_traits@D@std@@@std@@8 10051764     libcpmt:cout.obj
 0002:0000d778       ??_R1A@?0A@EA@?$basic_ostream@DU?$char_traits@D@std@@@std@@8 10051778     libcpmt:cout.obj
 0002:0000d794       ??_R4?$basic_filebuf@DU?$char_traits@D@std@@@std@@6B@ 10051794     libcpmt:cout.obj
 0002:0000d7a8       ??_R3?$basic_filebuf@DU?$char_traits@D@std@@@std@@8 100517a8     libcpmt:cout.obj
 0002:0000d7b8       ??_R2?$basic_filebuf@DU?$char_traits@D@std@@@std@@8 100517b8     libcpmt:cout.obj
 0002:0000d7c4       ??_R1A@?0A@EA@?$basic_filebuf@DU?$char_traits@D@std@@@std@@8 100517c4     libcpmt:cout.obj
 0002:0000d7e0       ??_R4bad_cast@std@@6B@     100517e0     libcpmt:cout.obj
 0002:0000d7f4       ??_R3bad_cast@std@@8       100517f4     libcpmt:cout.obj
 0002:0000d804       ??_R2bad_cast@std@@8       10051804     libcpmt:cout.obj
 0002:0000d810       ??_R1A@?0A@EA@bad_cast@std@@8 10051810     libcpmt:cout.obj
 0002:0000d82c       ??_R4_Facet_base@std@@6B@  1005182c     libcpmt:cout.obj
 0002:0000d840       ??_R3_Facet_base@std@@8    10051840     libcpmt:cout.obj
 0002:0000d850       ??_R2_Facet_base@std@@8    10051850     libcpmt:cout.obj
 0002:0000d858       ??_R1A@?0A@EA@_Facet_base@std@@8 10051858     libcpmt:cout.obj
 0002:0000d874       ??_R1A@?0A@EA@facet@locale@std@@8 10051874     libcpmt:cout.obj
 0002:0000d890       ??_R3facet@locale@std@@8   10051890     libcpmt:cout.obj
 0002:0000d8a0       ??_R2facet@locale@std@@8   100518a0     libcpmt:cout.obj
 0002:0000d8b0       ??_R13?0A@EA@_Crt_new_delete@std@@8 100518b0     libcpmt:cout.obj
 0002:0000d8cc       ??_R3_Crt_new_delete@std@@8 100518cc     libcpmt:cout.obj
 0002:0000d8dc       ??_R2_Crt_new_delete@std@@8 100518dc     libcpmt:cout.obj
 0002:0000d8e4       ??_R1A@?0A@EA@_Crt_new_delete@std@@8 100518e4     libcpmt:cout.obj
 0002:0000d900       ??_R3codecvt_base@std@@8   10051900     libcpmt:cout.obj
 0002:0000d910       ??_R2codecvt_base@std@@8   10051910     libcpmt:cout.obj
 0002:0000d924       ??_R1A@?0A@EA@codecvt_base@std@@8 10051924     libcpmt:cout.obj
 0002:0000d940       ??_R3ctype_base@std@@8     10051940     libcpmt:cout.obj
 0002:0000d950       ??_R2ctype_base@std@@8     10051950     libcpmt:cout.obj
 0002:0000d964       ??_R1A@?0A@EA@ctype_base@std@@8 10051964     libcpmt:cout.obj
 0002:0000d980       ??_R4?$ctype@D@std@@6B@    10051980     libcpmt:cout.obj
 0002:0000d994       ??_R3?$ctype@D@std@@8      10051994     libcpmt:cout.obj
 0002:0000d9a4       ??_R2?$ctype@D@std@@8      100519a4     libcpmt:cout.obj
 0002:0000d9bc       ??_R1A@?0A@EA@?$ctype@D@std@@8 100519bc     libcpmt:cout.obj
 0002:0000d9d8       ??_R4error_category@std@@6B@ 100519d8     libcpmt:cout.obj
 0002:0000d9ec       ??_R3error_category@std@@8 100519ec     libcpmt:cout.obj
 0002:0000d9fc       ??_R2error_category@std@@8 100519fc     libcpmt:cout.obj
 0002:0000da04       ??_R1A@?0A@EA@error_category@std@@8 10051a04     libcpmt:cout.obj
 0002:0000da20       ??_R4_System_error@std@@6B@ 10051a20     libcpmt:cout.obj
 0002:0000da34       ??_R3_System_error@std@@8  10051a34     libcpmt:cout.obj
 0002:0000da44       ??_R2_System_error@std@@8  10051a44     libcpmt:cout.obj
 0002:0000da54       ??_R1A@?0A@EA@_System_error@std@@8 10051a54     libcpmt:cout.obj
 0002:0000da70       ??_R3system_error@std@@8   10051a70     libcpmt:cout.obj
 0002:0000da80       ??_R2system_error@std@@8   10051a80     libcpmt:cout.obj
 0002:0000da94       ??_R1A@?0A@EA@system_error@std@@8 10051a94     libcpmt:cout.obj
 0002:0000dab0       ??_R3_Generic_error_category@std@@8 10051ab0     libcpmt:cout.obj
 0002:0000dac0       ??_R2_Generic_error_category@std@@8 10051ac0     libcpmt:cout.obj
 0002:0000dacc       ??_R1A@?0A@EA@_Generic_error_category@std@@8 10051acc     libcpmt:cout.obj
 0002:0000dae8       ??_R4_Iostream_error_category@std@@6B@ 10051ae8     libcpmt:cout.obj
 0002:0000dafc       ??_R3_Iostream_error_category@std@@8 10051afc     libcpmt:cout.obj
 0002:0000db0c       ??_R2_Iostream_error_category@std@@8 10051b0c     libcpmt:cout.obj
 0002:0000db1c       ??_R1A@?0A@EA@_Iostream_error_category@std@@8 10051b1c     libcpmt:cout.obj
 0002:0000db38       ??_R4failure@ios_base@std@@6B@ 10051b38     libcpmt:cout.obj
 0002:0000db4c       ??_R3failure@ios_base@std@@8 10051b4c     libcpmt:cout.obj
 0002:0000db5c       ??_R2failure@ios_base@std@@8 10051b5c     libcpmt:cout.obj
 0002:0000db74       ??_R1A@?0A@EA@failure@ios_base@std@@8 10051b74     libcpmt:cout.obj
 0002:0000db90       ??_R4?$codecvt@DDU_Mbstatet@@@std@@6B@ 10051b90     libcpmt:cout.obj
 0002:0000dba4       ??_R3?$codecvt@DDU_Mbstatet@@@std@@8 10051ba4     libcpmt:cout.obj
 0002:0000dbb4       ??_R2?$codecvt@DDU_Mbstatet@@@std@@8 10051bb4     libcpmt:cout.obj
 0002:0000dbcc       ??_R1A@?0A@EA@?$codecvt@DDU_Mbstatet@@@std@@8 10051bcc     libcpmt:cout.obj
 0002:0000dbe8       ??_R4_Locimp@locale@std@@6B@ 10051be8     libcpmt:locale0.obj
 0002:0000dbfc       ??_R3_Locimp@locale@std@@8 10051bfc     libcpmt:locale0.obj
 0002:0000dc0c       ??_R2_Locimp@locale@std@@8 10051c0c     libcpmt:locale0.obj
 0002:0000dc20       ??_R1A@?0A@EA@_Locimp@locale@std@@8 10051c20     libcpmt:locale0.obj
 0002:0000dc3c       ??_R4type_info@@6B@        10051c3c     LIBCMT:std_type_info_static.obj
 0002:0000dc50       ??_R3type_info@@8          10051c50     LIBCMT:std_type_info_static.obj
 0002:0000dc60       ??_R2type_info@@8          10051c60     LIBCMT:std_type_info_static.obj
 0002:0000dc68       ??_R1A@?0A@EA@type_info@@8 10051c68     LIBCMT:std_type_info_static.obj
 0002:0000dc84       ??_R4bad_array_new_length@std@@6B@ 10051c84     LIBCMT:throw_bad_alloc.obj
 0002:0000dc98       ??_R3bad_array_new_length@std@@8 10051c98     LIBCMT:throw_bad_alloc.obj
 0002:0000dca8       ??_R2bad_array_new_length@std@@8 10051ca8     LIBCMT:throw_bad_alloc.obj
 0002:0000dcb8       ??_R1A@?0A@EA@bad_array_new_length@std@@8 10051cb8     LIBCMT:throw_bad_alloc.obj
 0002:0000dcd4       ??_R4bad_exception@std@@6B@ 10051cd4     libvcruntime:frame.obj
 0002:0000dce8       ??_R3bad_exception@std@@8  10051ce8     libvcruntime:frame.obj
 0002:0000dcf8       ??_R2bad_exception@std@@8  10051cf8     libvcruntime:frame.obj
 0002:0000dd04       ??_R1A@?0A@EA@bad_exception@std@@8 10051d04     libvcruntime:frame.obj
 0002:0000dd20       ___safe_se_handler_table   10051d20     <linker-defined>
 0002:0000e190       ___rtc_iaa                 10052190     LIBCMT:_initsect_.obj
 0002:0000e194       ___rtc_izz                 10052194     LIBCMT:_initsect_.obj
 0002:0000e198       ___rtc_taa                 10052198     LIBCMT:_initsect_.obj
 0002:0000e19c       ___rtc_tzz                 1005219c     LIBCMT:_initsect_.obj
 0002:0000e1a0       __TI2?AVbad_alloc@std@@    100521a0     libcpmt:xthrow.obj
 0002:0000e1b0       __CTA2?AVbad_alloc@std@@   100521b0     libcpmt:xthrow.obj
 0002:0000e1bc       __CT??_R0?AVbad_alloc@std@@@8??0bad_alloc@std@@QAE@ABV01@@Z12 100521bc     libcpmt:xthrow.obj
 0002:0000e1d8       __CT??_R0?AVexception@std@@@8??0exception@std@@QAE@ABV01@@Z12 100521d8     libcpmt:xthrow.obj
 0002:0000e1f4       __CT??_R0?AVlogic_error@std@@@8??0logic_error@std@@QAE@ABV01@@Z12 100521f4     libcpmt:xthrow.obj
 0002:0000e210       __TI3?AVlength_error@std@@ 10052210     libcpmt:xthrow.obj
 0002:0000e220       __CTA3?AVlength_error@std@@ 10052220     libcpmt:xthrow.obj
 0002:0000e230       __CT??_R0?AVlength_error@std@@@8??0length_error@std@@QAE@ABV01@@Z12 10052230     libcpmt:xthrow.obj
 0002:0000e24c       __TI3?AVout_of_range@std@@ 1005224c     libcpmt:xthrow.obj
 0002:0000e25c       __CTA3?AVout_of_range@std@@ 1005225c     libcpmt:xthrow.obj
 0002:0000e26c       __CT??_R0?AVout_of_range@std@@@8??0out_of_range@std@@QAE@ABV01@@Z12 1005226c     libcpmt:xthrow.obj
 0002:0000e288       __CT??_R0?AVruntime_error@std@@@8??0runtime_error@std@@QAE@ABV01@@Z12 10052288     libcpmt:xthrow.obj
 0002:0000e2a4       __TI2?AVruntime_error@std@@ 100522a4     libcpmt:xthrow.obj
 0002:0000e2b4       __CTA2?AVruntime_error@std@@ 100522b4     libcpmt:xthrow.obj
 0002:0000e524       __TI2?AVbad_cast@std@@     10052524     libcpmt:cout.obj
 0002:0000e534       __CTA2?AVbad_cast@std@@    10052534     libcpmt:cout.obj
 0002:0000e540       __CT??_R0?AVbad_cast@std@@@8??0bad_cast@std@@QAE@ABV01@@Z12 10052540     libcpmt:cout.obj
 0002:0000e634       __TI3?AVbad_array_new_length@std@@ 10052634     LIBCMT:throw_bad_alloc.obj
 0002:0000e644       __CTA3?AVbad_array_new_length@std@@ 10052644     LIBCMT:throw_bad_alloc.obj
 0002:0000e654       __CT??_R0?AVbad_array_new_length@std@@@8??0bad_array_new_length@std@@QAE@ABV01@@Z12 10052654     LIBCMT:throw_bad_alloc.obj
 0002:0000e774       __TI2?AVbad_exception@std@@ 10052774     libvcruntime:frame.obj
 0002:0000e784       __CTA2?AVbad_exception@std@@ 10052784     libvcruntime:frame.obj
 0002:0000e790       __CT??_R0?AVbad_exception@std@@@8??0bad_exception@std@@QAE@ABV01@@Z12 10052790     libvcruntime:frame.obj
 0002:0000edd4       __IMPORT_DESCRIPTOR_KERNEL32 10052dd4     kernel32:KERNEL32.dll
 0002:0000ede8       __IMPORT_DESCRIPTOR_node   10052de8     iojs:node.dll
 0002:0000edfc       __NULL_IMPORT_DESCRIPTOR   10052dfc     kernel32:KERNEL32.dll
 0003:00000004       ?_Sync@ios_base@std@@0_NA  10055004     libcpmt:ios.obj
 0003:00000010       ?_PJP_CPP_Copyright@@3PADA 10055010     libcpmt:iosptrs.obj
 0003:00000064       ___scrt_native_dllmain_reason 10055064     LIBCMT:utility.obj
 0003:00000068       __Init_global_epoch        10055068     LIBCMT:thread_safe_statics.obj
 0003:0000006c       ___security_cookie_complement 1005506c     LIBCMT:gs_cookie.obj
 0003:00000070       ___security_cookie         10055070     LIBCMT:gs_cookie.obj
 0003:00000080       __fltused                  10055080     LIBCMT:fltused.obj
 0003:00000090       ___isa_enabled             10055090     LIBCMT:_cpu_disp_.obj
 0003:000000b0       __NLG_Destination          100550b0     libvcruntime:_exsup_.obj
 0003:000000c0       __iob                      100550c0     libucrt:_file.obj
 0003:00000170       __pctype                   10055170     libucrt:ctype.obj
 0003:00000174       __pwctype                  10055174     libucrt:ctype.obj
 0003:00000178       ___abort_behavior          10055178     libucrt:abort.obj
 0003:00000180       ___acrt_lconv_static_decimal 10055180     libucrt:localeconv.obj
 0003:00000184       ___acrt_lconv_static_W_decimal 10055184     libucrt:localeconv.obj
 0003:00000188       ___acrt_lconv_c            10055188     libucrt:localeconv.obj
 0003:000001d8       ___acrt_lconv              100551d8     libucrt:localeconv.obj
 0003:000001e8       ___mb_cur_max              100551e8     libucrt:nlsdata.obj
 0003:000001f0       ___acrt_initial_locale_data 100551f0     libucrt:nlsdata.obj
 0003:000002a8       ___acrt_initial_locale_pointers 100552a8     libucrt:nlsdata.obj
 0003:000002b0       ___acrt_wide_c_locale_string 100552b0     libucrt:nlsdata.obj
 0003:000002b8       ___badioinfo               100552b8     libucrt:ioinit.obj
 0003:000002e8       __lookuptrailbytes         100552e8     libucrt:read.obj
 0003:000003e8       ___globallocalestatus      100553e8     libucrt:glstatus.obj
 0003:00000570       __mbctype                  10055570     libucrt:mbctype.obj
 0003:00000678       __mbcasemap                10055678     libucrt:mbctype.obj
 0003:00000778       ___acrt_initial_multibyte_data 10055778     libucrt:mbctype.obj
 0003:00000998       ___acrt_current_multibyte_data 10055998     libucrt:mbctype.obj
 0003:000009a0       ___dcrt_lowio_console_output_handle 100559a0     libucrt:initcon.obj
 0003:00020e80       ??_R0?AVbad_alloc@std@@@8  10075e80     libcpmt:xthrow.obj
 0003:00020e9c       ??_R0?AVexception@std@@@8  10075e9c     libcpmt:xthrow.obj
 0003:00020eb8       ??_R0?AVlogic_error@std@@@8 10075eb8     libcpmt:xthrow.obj
 0003:00020ed8       ??_R0?AVlength_error@std@@@8 10075ed8     libcpmt:xthrow.obj
 0003:00020ef8       ??_R0?AVout_of_range@std@@@8 10075ef8     libcpmt:xthrow.obj
 0003:00020f18       ??_R0?AVruntime_error@std@@@8 10075f18     libcpmt:xthrow.obj
 0003:00020f38       ??_R0?AVfailure@ios_base@std@@@8 10075f38     libcpmt:cout.obj
 0003:00020f5c       ??_R0?AVsystem_error@std@@@8 10075f5c     libcpmt:cout.obj
 0003:00020f7c       ??_R0?AV_System_error@std@@@8 10075f7c     libcpmt:cout.obj
 0003:00020f9c       ??_R0?AVbad_cast@std@@@8   10075f9c     libcpmt:cout.obj
 0003:00020fb8       ??_R0?AVios_base@std@@@8   10075fb8     libcpmt:cout.obj
 0003:00020fd4       ??_R0?AV?$_Iosb@H@std@@@8  10075fd4     libcpmt:cout.obj
 0003:00020ff0       ??_R0?AV?$basic_ios@DU?$char_traits@D@std@@@std@@@8 10075ff0     libcpmt:cout.obj
 0003:00021028       ??_R0?AV?$basic_streambuf@DU?$char_traits@D@std@@@std@@@8 10076028     libcpmt:cout.obj
 0003:00021064       ??_R0?AV?$basic_ostream@DU?$char_traits@D@std@@@std@@@8 10076064     libcpmt:cout.obj
 0003:000210a0       ??_R0?AV?$basic_filebuf@DU?$char_traits@D@std@@@std@@@8 100760a0     libcpmt:cout.obj
 0003:000210dc       ??_R0?AV_Facet_base@std@@@8 100760dc     libcpmt:cout.obj
 0003:000210fc       ??_R0?AVfacet@locale@std@@@8 100760fc     libcpmt:cout.obj
 0003:0002111c       ??_R0?AU_Crt_new_delete@std@@@8 1007611c     libcpmt:cout.obj
 0003:00021140       ??_R0?AVcodecvt_base@std@@@8 10076140     libcpmt:cout.obj
 0003:00021160       ??_R0?AUctype_base@std@@@8 10076160     libcpmt:cout.obj
 0003:00021180       ??_R0?AV?$ctype@D@std@@@8  10076180     libcpmt:cout.obj
 0003:0002119c       ??_R0?AVerror_category@std@@@8 1007619c     libcpmt:cout.obj
 0003:000211c0       ??_R0?AV_Generic_error_category@std@@@8 100761c0     libcpmt:cout.obj
 0003:000211ec       ??_R0?AV_Iostream_error_category@std@@@8 100761ec     libcpmt:cout.obj
 0003:00021218       ??_R0?AV?$codecvt@DDU_Mbstatet@@@std@@@8 10076218     libcpmt:cout.obj
 0003:00021244       ??_R0?AV_Locimp@locale@std@@@8 10076244     libcpmt:locale0.obj
 0003:00021268       ??_R0?AVtype_info@@@8      10076268     LIBCMT:std_type_info_static.obj
 0003:00021280       ??_R0?AVbad_array_new_length@std@@@8 10076280     LIBCMT:throw_bad_alloc.obj
 0003:000212a8       ??_R0?AVbad_exception@std@@@8 100762a8     libvcruntime:frame.obj
 0003:000212d0       ?cout@std@@3V?$basic_ostream@DU?$char_traits@D@std@@@1@A 100762d0     libcpmt:cout.obj
 0003:00021378       ?id@?$codecvt@DDU_Mbstatet@@@std@@2V0locale@2@A 10076378     libcpmt:cout.obj
 0003:0002137c       ?_Stinit@?1??_Init@?$basic_filebuf@DU?$char_traits@D@std@@@std@@IAEXPAU_iobuf@@W4_Initfl@23@@Z@4U_Mbstatet@@A 1007637c     libcpmt:cout.obj
 0003:00021384       ?_Psave@?$_Facetptr@V?$ctype@D@std@@@std@@2PBVfacet@locale@2@B 10076384     libcpmt:cout.obj
 0003:00021388       ?_Psave@?$_Facetptr@V?$codecvt@DDU_Mbstatet@@@std@@@std@@2PBVfacet@locale@2@B 10076388     libcpmt:cout.obj
 0003:0002138c       ?_Raise_handler@std@@3P6AXABVexception@stdext@@@ZA 1007638c     libcpmt:raisehan.obj
 0003:00021458       ?_Id_cnt@id@locale@std@@0HA 10076458     libcpmt:locale0.obj
 0003:0002145c       ?_Clocptr@_Locimp@locale@std@@0PAV123@A 1007645c     libcpmt:locale0.obj
 0003:00021468       ?id@?$ctype@G@std@@2V0locale@2@A 10076468     libcpmt:locale0.obj
 0003:0002146c       ?id@?$codecvt@_WDU_Mbstatet@@@std@@2V0locale@2@A 1007646c     libcpmt:locale0.obj
 0003:00021470       ?id@?$codecvt@GDU_Mbstatet@@@std@@2V0locale@2@A 10076470     libcpmt:locale0.obj
 0003:00021474       ?id@?$ctype@_W@std@@2V0locale@2@A 10076474     libcpmt:locale0.obj
 0003:00021478       ?id@?$ctype@D@std@@2V0locale@2@A 10076478     libcpmt:locale0.obj
 0003:00021488       ?_Index@ios_base@std@@0HA  10076488     libcpmt:ios.obj
 0003:000214c0       ?_Ptr_cin@std@@3PAV?$basic_istream@DU?$char_traits@D@std@@@1@A 100764c0     libcpmt:iosptrs.obj
 0003:000214c4       ?_Ptr_cout@std@@3PAV?$basic_ostream@DU?$char_traits@D@std@@@1@A 100764c4     libcpmt:iosptrs.obj
 0003:000214c8       ?_Ptr_cerr@std@@3PAV?$basic_ostream@DU?$char_traits@D@std@@@1@A 100764c8     libcpmt:iosptrs.obj
 0003:000214cc       ?_Ptr_clog@std@@3PAV?$basic_ostream@DU?$char_traits@D@std@@@1@A 100764cc     libcpmt:iosptrs.obj
 0003:000214d0       ?_Ptr_wcin@std@@3PAV?$basic_istream@_WU?$char_traits@_W@std@@@1@A 100764d0     libcpmt:iosptrs.obj
 0003:000214d4       ?_Ptr_wcout@std@@3PAV?$basic_ostream@_WU?$char_traits@_W@std@@@1@A 100764d4     libcpmt:iosptrs.obj
 0003:000214d8       ?_Ptr_wcerr@std@@3PAV?$basic_ostream@_WU?$char_traits@_W@std@@@1@A 100764d8     libcpmt:iosptrs.obj
 0003:000214dc       ?_Ptr_wclog@std@@3PAV?$basic_ostream@_WU?$char_traits@_W@std@@@1@A 100764dc     libcpmt:iosptrs.obj
 0003:0002150c       ?id@?$num_get@DV?$istreambuf_iterator@DU?$char_traits@D@std@@@std@@@std@@2V0locale@2@A 1007650c     libcpmt:locale.obj
 0003:00021510       ?id@?$num_put@DV?$ostreambuf_iterator@DU?$char_traits@D@std@@@std@@@std@@2V0locale@2@A 10076510     libcpmt:locale.obj
 0003:00021514       ?id@?$numpunct@D@std@@2V0locale@2@A 10076514     libcpmt:locale.obj
 0003:00021518       ___encodedKERNEL32Functions 10076518     libcpmt:winapisupp.obj
 0003:000215b8       ?id@?$time_put@_WV?$ostreambuf_iterator@_WU?$char_traits@_W@std@@@std@@@std@@2V0locale@2@A 100765b8     libcpmt:wlocale.obj
 0003:000215bc       ?id@?$num_get@_WV?$istreambuf_iterator@_WU?$char_traits@_W@std@@@std@@@std@@2V0locale@2@A 100765bc     libcpmt:wlocale.obj
 0003:000215c0       ?id@?$num_put@_WV?$ostreambuf_iterator@_WU?$char_traits@_W@std@@@std@@@std@@2V0locale@2@A 100765c0     libcpmt:wlocale.obj
 0003:000215c4       ?id@?$numpunct@_W@std@@2V0locale@2@A 100765c4     libcpmt:wlocale.obj
 0003:000215c8       ?id@?$collate@_W@std@@2V0locale@2@A 100765c8     libcpmt:wlocale.obj
 0003:000215cc       ?id@?$messages@_W@std@@2V0locale@2@A 100765cc     libcpmt:wlocale.obj
 0003:000215d0       ?id@?$money_get@_WV?$istreambuf_iterator@_WU?$char_traits@_W@std@@@std@@@std@@2V0locale@2@A 100765d0     libcpmt:wlocale.obj
 0003:000215d4       ?id@?$money_put@_WV?$ostreambuf_iterator@_WU?$char_traits@_W@std@@@std@@@std@@2V0locale@2@A 100765d4     libcpmt:wlocale.obj
 0003:000215d8       ?id@?$moneypunct@_W$0A@@std@@2V0locale@2@A 100765d8     libcpmt:wlocale.obj
 0003:000215dc       ?id@?$moneypunct@_W$00@std@@2V0locale@2@A 100765dc     libcpmt:wlocale.obj
 0003:000215e0       ?id@?$time_get@_WV?$istreambuf_iterator@_WU?$char_traits@_W@std@@@std@@@std@@2V0locale@2@A 100765e0     libcpmt:wlocale.obj
 0003:000215e4       ?id@?$num_get@GV?$istreambuf_iterator@GU?$char_traits@G@std@@@std@@@std@@2V0locale@2@A 100765e4     libcpmt:wlocale.obj
 0003:000215e8       ?id@?$num_put@GV?$ostreambuf_iterator@GU?$char_traits@G@std@@@std@@@std@@2V0locale@2@A 100765e8     libcpmt:wlocale.obj
 0003:000215ec       ?id@?$numpunct@G@std@@2V0locale@2@A 100765ec     libcpmt:wlocale.obj
 0003:000215f0       ?id@?$collate@G@std@@2V0locale@2@A 100765f0     libcpmt:wlocale.obj
 0003:000215f4       ?id@?$messages@G@std@@2V0locale@2@A 100765f4     libcpmt:wlocale.obj
 0003:000215f8       ?id@?$money_get@GV?$istreambuf_iterator@GU?$char_traits@G@std@@@std@@@std@@2V0locale@2@A 100765f8     libcpmt:wlocale.obj
 0003:000215fc       ?id@?$money_put@GV?$ostreambuf_iterator@GU?$char_traits@G@std@@@std@@@std@@2V0locale@2@A 100765fc     libcpmt:wlocale.obj
 0003:00021600       ?id@?$moneypunct@G$0A@@std@@2V0locale@2@A 10076600     libcpmt:wlocale.obj
 0003:00021604       ?id@?$moneypunct@G$00@std@@2V0locale@2@A 10076604     libcpmt:wlocale.obj
 0003:00021608       ?id@?$time_get@GV?$istreambuf_iterator@GU?$char_traits@G@std@@@std@@@std@@2V0locale@2@A 10076608     libcpmt:wlocale.obj
 0003:0002160c       ?id@?$time_put@GV?$ostreambuf_iterator@GU?$char_traits@G@std@@@std@@@std@@2V0locale@2@A 1007660c     libcpmt:wlocale.obj
 0003:00021610       ?id@?$collate@D@std@@2V0locale@2@A 10076610     libcpmt:xlocale.obj
 0003:00021614       ?id@?$messages@D@std@@2V0locale@2@A 10076614     libcpmt:xlocale.obj
 0003:00021618       ?id@?$money_get@DV?$istreambuf_iterator@DU?$char_traits@D@std@@@std@@@std@@2V0locale@2@A 10076618     libcpmt:xlocale.obj
 0003:0002161c       ?id@?$money_put@DV?$ostreambuf_iterator@DU?$char_traits@D@std@@@std@@@std@@2V0locale@2@A 1007661c     libcpmt:xlocale.obj
 0003:00021620       ?id@?$moneypunct@D$0A@@std@@2V0locale@2@A 10076620     libcpmt:xlocale.obj
 0003:00021624       ?id@?$moneypunct@D$00@std@@2V0locale@2@A 10076624     libcpmt:xlocale.obj
 0003:00021628       ?id@?$time_get@DV?$istreambuf_iterator@DU?$char_traits@D@std@@@std@@@std@@2V0locale@2@A 10076628     libcpmt:xlocale.obj
 0003:0002162c       ?id@?$time_put@DV?$ostreambuf_iterator@DU?$char_traits@D@std@@@std@@@std@@2V0locale@2@A 1007662c     libcpmt:xlocale.obj
 0003:00021630       ___scrt_current_native_startup_state 10076630     LIBCMT:utility.obj
 0003:00021634       ___scrt_native_startup_lock 10076634     LIBCMT:utility.obj
 0003:0002199c       ___isa_available           1007699c     LIBCMT:_cpu_disp_.obj
 0003:000219a0       ___favor                   100769a0     LIBCMT:_cpu_disp_.obj
 0003:000219a4       ___scrt_debugger_hook_flag 100769a4     LIBCMT:utility_desktop.obj
 0003:000219a8       ?__type_info_root_node@@3U__type_info_node@@A 100769a8     LIBCMT:tncleanup.obj
 0003:000219b0       ?_OptionsStorage@?1??__local_stdio_scanf_options@@9@4_KA 100769b0     LIBCMT:default_local_stdio_options.obj
 0003:000219b8       __tls_index                100769b8     LIBCMT:tlssup.obj
 0003:000219bc       ?g_OutOfMemoryExceptionCallback@@3P6GPAXXZA 100769bc     libvcruntime:frame.obj
 0003:000219f4       ___pPurecall               100769f4     libvcruntime:purevirt_data.obj
 0003:00021a3c       ?pArgList@UnDecorator@@0PAVReplicator@@A 10076a3c     libvcruntime:undname.obj
 0003:00021a40       ?pZNameList@UnDecorator@@0PAVReplicator@@A 10076a40     libvcruntime:undname.obj
 0003:00021a44       ?pTemplateArgList@UnDecorator@@0PAVReplicator@@A 10076a44     libvcruntime:undname.obj
 0003:00021a48       ?gName@UnDecorator@@0PBDB  10076a48     libvcruntime:undname.obj
 0003:00021a4c       ?name@UnDecorator@@0PBDB   10076a4c     libvcruntime:undname.obj
 0003:00021a50       ?outputString@UnDecorator@@0PADA 10076a50     libvcruntime:undname.obj
 0003:00021a54       ?maxStringLength@UnDecorator@@0HA 10076a54     libvcruntime:undname.obj
 0003:00021a58       ?disableFlags@UnDecorator@@0KA 10076a58     libvcruntime:undname.obj
 0003:00021a5c       ?fExplicitTemplateParams@UnDecorator@@0_NA 10076a5c     libvcruntime:undname.obj
 0003:00021a5d       ?fGetTemplateArgumentList@UnDecorator@@0_NA 10076a5d     libvcruntime:undname.obj
 0003:00021a60       ?m_pGetParameter@UnDecorator@@0P6APADJ@ZA 10076a60     libvcruntime:undname.obj
 0003:00021a7c       __nstream                  10076a7c     libucrt:_file.obj
 0003:00021a80       ___piob                    10076a80     libucrt:_file.obj
 0003:00021a84       __cflush                   10076a84     libucrt:_file.obj
 0003:00021bd4       ___acrt_lconv_static_null  10076bd4     libucrt:localeconv.obj
 0003:00021bd8       ___acrt_lconv_static_W_null 10076bd8     libucrt:localeconv.obj
 0003:00021cf8       __environ_table            10076cf8     libucrt:environment_initialization.obj
 0003:00021cfc       __wenviron_table           10076cfc     libucrt:environment_initialization.obj
 0003:00021d00       ___dcrt_initial_wide_environment 10076d00     libucrt:environment_initialization.obj
 0003:00021d04       ___dcrt_initial_narrow_environment 10076d04     libucrt:environment_initialization.obj
 0003:00021d08       ___acrt_atexit_table       10076d08     libucrt:onexit.obj
 0003:00021d14       ___acrt_at_quick_exit_table 10076d14     libucrt:onexit.obj
 0003:00021d38       ___acrt_locale_changed_data 10076d38     libucrt:wsetlocale.obj
 0003:00021d3c       ___acrt_current_locale_data 10076d3c     libucrt:nlsdata.obj
 0003:00021d44       ___acrt_stdout_buffer      10076d44     libucrt:_sftbuf.obj
 0003:00021d48       ___acrt_stderr_buffer      10076d48     libucrt:_sftbuf.obj
 0003:00021d50       ___pioinfo                 10076d50     libucrt:ioinit.obj
 0003:00021f50       __nhandle                  10076f50     libucrt:ioinit.obj
 0003:00022034       ___acrt_heap               10077034     libucrt:heap_handle.obj
 0003:00022038       ___fastflag                10077038     libucrt:fp_flags.obj
 0003:0002203c       ?_timezone@@3V?$dual_state_global@J@__crt_state_management@@A 1007703c     libucrt:timeset.obj
 0003:00022040       ?_daylight@@3V?$dual_state_global@H@__crt_state_management@@A 10077040     libucrt:timeset.obj
 0003:00022044       ?_dstbias@@3V?$dual_state_global@J@__crt_state_management@@A 10077044     libucrt:timeset.obj
 0003:00022104       ___mblocalename            10077104     libucrt:mbctype.obj
 0003:00022108       ___mbcodepage              10077108     libucrt:mbctype.obj
 0003:0002210c       ___ismbcodepage            1007710c     libucrt:mbctype.obj
 0003:00022110       ___mbulinfo                10077110     libucrt:mbctype.obj
 0003:00022124       ___argc                    10077124     libucrt:argv_data.obj
 0003:00022128       ___argv                    10077128     libucrt:argv_data.obj
 0003:0002212c       ___wargv                   1007712c     libucrt:argv_data.obj
 0003:00022130       __acmdln                   10077130     libucrt:argv_data.obj
 0003:00022134       __wcmdln                   10077134     libucrt:argv_data.obj
 0003:00022138       __pgmptr                   10077138     libucrt:argv_data.obj
 0003:00022140       __commode                  10077140     libucrt:ncommode.obj
 0003:00022148       __umaskval                 10077148     libucrt:umask.obj
 0003:0002214c       __fmode                    1007714c     libucrt:txtmode.obj
 0003:00022150       ?_OptionsStorage@?1??__local_stdio_printf_options@@9@4_KA 10077150     hunspell:hunspell.obj
 0003:00022160       ?constructor@SpellDictionary@Nodehun@@2V?$Persistent@VFunction@v8@@V?$NonCopyablePersistentTraits@VFunction@v8@@@2@@v8@@A 10077160     nodehun.obj
 0003:00022164       ?_Static@?1???$_Immortalize@V_Iostream_error_category@std@@@std@@YAAAV_Iostream_error_category@1@XZ@4U?$_Immortalizer@V_Iostream_error_category@std@@@1@A 10077164     hunspell:strmgr.obj
 0003:0002216c       ?$TSS0@?1???$_Immortalize@V_Iostream_error_category@std@@@std@@YAAAV_Iostream_error_category@1@XZ@4HA 1007716c     hunspell:strmgr.obj
 0003:00022170       ___dyn_tls_init_callback   10077170     <common>
 0003:00022174       ___scrt_ucrt_dll_is_in_use 10077174     <common>
 0003:00022178       __pmatherr                 10077178     <common>
 0003:0002217c       ___use_sse2_mathfcns       1007717c     <common>
 0005:00000000       __tls_start                10079000     LIBCMT:tlssup.obj
 0005:00000004       __Init_thread_epoch        10079004     LIBCMT:thread_safe_statics.obj
 0005:00000008       __tls_end                  10079008     LIBCMT:tlssup.obj

 entry point at        0001:00024d91

 Static symbols

 0000:fff82000       .debug$S                   10000000     iojs:node.dll
 0000:fff82000       .debug$S                   10000000     iojs:node.dll
 0000:fff82000       .debug$S                   10000000     iojs:node.dll
 0000:fff82000       .debug$S                   10000000     iojs:node.dll
 0000:fff82000       .debug$S                   10000000     iojs:node.dll
 0000:fff82000       .debug$S                   10000000     iojs:node.dll
 0000:fff82000       .debug$S                   10000000     iojs:node.dll
 0000:fff82000       .debug$S                   10000000     iojs:node.dll
 0000:fff82000       .debug$S                   10000000     iojs:node.dll
 0000:fff82000       .debug$S                   10000000     iojs:node.dll
 0000:fff82000       .debug$S                   10000000     iojs:node.dll
 0000:fff82000       .debug$S                   10000000     iojs:node.dll
 0000:fff82000       .debug$S                   10000000     iojs:node.dll
 0000:fff82000       .debug$S                   10000000     iojs:node.dll
 0000:fff82000       .debug$S                   10000000     iojs:node.dll
 0000:fff82000       .debug$S                   10000000     iojs:node.dll
 0000:fff82000       .debug$S                   10000000     iojs:node.dll
 0000:fff82000       .debug$S                   10000000     iojs:node.dll
 0000:fff82000       .debug$S                   10000000     iojs:node.dll
 0000:fff82000       .debug$S                   10000000     iojs:node.dll
 0000:fff82000       .debug$S                   10000000     iojs:node.dll
 0000:fff82000       .debug$S                   10000000     iojs:node.dll
 0000:fff82000       .debug$S                   10000000     iojs:node.dll
 0000:fff82000       .debug$S                   10000000     iojs:node.dll
 0000:fff82000       .debug$S                   10000000     iojs:node.dll
 0000:fff82000       .debug$S                   10000000     iojs:node.dll
 0000:fff82000       .debug$S                   10000000     iojs:node.dll
 0000:fff82000       .debug$S                   10000000     iojs:node.dll
 0000:fff82000       .debug$S                   10000000     iojs:node.dll
 0000:fff82000       .debug$S                   10000000     iojs:node.dll
 0000:fff82000       .debug$S                   10000000     iojs:node.dll
 0000:fff82000       .debug$S                   10000000     iojs:node.dll
 0000:fff82000       .debug$S                   10000000     iojs:node.dll
 0000:fff82000       .debug$S                   10000000     iojs:node.dll
 0000:fff82000       .debug$S                   10000000     iojs:node.dll
 0000:fff82000       .debug$S                   10000000     iojs:node.dll
 0000:fff82000       .debug$S                   10000000     iojs:node.dll
 0000:fff82000       .debug$S                   10000000     iojs:node.dll
 0000:fff82000       .debug$S                   10000000     iojs:node.dll
 0000:fff82000       .debug$S                   10000000     iojs:node.dll
 0000:fff82000       .debug$S                   10000000     iojs:node.dll
 0000:fff82000       .debug$S                   10000000     iojs:node.dll
 0000:fff82000       .debug$S                   10000000     iojs:node.dll
 0000:fff82000       .debug$S                   10000000     iojs:node.dll
 0000:fff82000       .debug$S                   10000000     iojs:node.dll
 0000:fff82000       .debug$S                   10000000     iojs:node.dll
 0000:fff82000       .debug$S                   10000000     iojs:node.dll
 0000:fff82000       .debug$S                   10000000     iojs:node.dll
 0000:fff82000       .debug$S                   10000000     iojs:node.dll
 0000:fff82000       .debug$S                   10000000     iojs:node.dll
 0000:fff82000       .debug$S                   10000000     iojs:node.dll
 0000:fff82000       .debug$S                   10000000     nodehun.exp
 0000:fff82000       .debug$S                   10000000     iojs:node.dll
 0000:fff82000       .debug$S                   10000000     iojs:node.dll
 0000:fff82000       .debug$S                   10000000     iojs:node.dll
 0000:fff82000       .debug$S                   10000000     iojs:node.dll
 0000:fff82000       .debug$S                   10000000     iojs:node.dll
 0000:fff82000       .debug$S                   10000000     kernel32:KERNEL32.dll
 0000:fff82000       .debug$S                   10000000     kernel32:KERNEL32.dll
 0000:fff82000       .debug$S                   10000000     kernel32:KERNEL32.dll
 0000:fff82000       .debug$S                   10000000     kernel32:KERNEL32.dll
 0000:fff82000       .debug$S                   10000000     kernel32:KERNEL32.dll
 0000:fff82000       .debug$S                   10000000     kernel32:KERNEL32.dll
 0000:fff82000       .debug$S                   10000000     kernel32:KERNEL32.dll
 0000:fff82000       .debug$S                   10000000     kernel32:KERNEL32.dll
 0000:fff82000       .debug$S                   10000000     kernel32:KERNEL32.dll
 0000:fff82000       .debug$S                   10000000     kernel32:KERNEL32.dll
 0000:fff82000       .debug$S                   10000000     kernel32:KERNEL32.dll
 0000:fff82000       .debug$S                   10000000     kernel32:KERNEL32.dll
 0000:fff82000       .debug$S                   10000000     kernel32:KERNEL32.dll
 0000:fff82000       .debug$S                   10000000     kernel32:KERNEL32.dll
 0000:fff82000       .debug$S                   10000000     kernel32:KERNEL32.dll
 0000:fff82000       .debug$S                   10000000     kernel32:KERNEL32.dll
 0000:fff82000       .debug$S                   10000000     kernel32:KERNEL32.dll
 0000:fff82000       .debug$S                   10000000     kernel32:KERNEL32.dll
 0000:fff82000       .debug$S                   10000000     kernel32:KERNEL32.dll
 0000:fff82000       .debug$S                   10000000     kernel32:KERNEL32.dll
 0000:fff82000       .debug$S                   10000000     kernel32:KERNEL32.dll
 0000:fff82000       .debug$S                   10000000     kernel32:KERNEL32.dll
 0000:fff82000       .debug$S                   10000000     kernel32:KERNEL32.dll
 0000:fff82000       .debug$S                   10000000     kernel32:KERNEL32.dll
 0000:fff82000       .debug$S                   10000000     kernel32:KERNEL32.dll
 0000:fff82000       .debug$S                   10000000     kernel32:KERNEL32.dll
 0000:fff82000       .debug$S                   10000000     kernel32:KERNEL32.dll
 0000:fff82000       .debug$S                   10000000     kernel32:KERNEL32.dll
 0000:fff82000       .debug$S                   10000000     kernel32:KERNEL32.dll
 0000:fff82000       .debug$S                   10000000     kernel32:KERNEL32.dll
 0000:fff82000       .debug$S                   10000000     kernel32:KERNEL32.dll
 0000:fff82000       .debug$S                   10000000     kernel32:KERNEL32.dll
 0000:fff82000       .debug$S                   10000000     kernel32:KERNEL32.dll
 0000:fff82000       .debug$S                   10000000     kernel32:KERNEL32.dll
 0000:fff82000       .debug$S                   10000000     kernel32:KERNEL32.dll
 0000:fff82000       .debug$S                   10000000     kernel32:KERNEL32.dll
 0000:fff82000       .debug$S                   10000000     kernel32:KERNEL32.dll
 0000:fff82000       .debug$S                   10000000     kernel32:KERNEL32.dll
 0000:fff82000       .debug$S                   10000000     kernel32:KERNEL32.dll
 0000:fff82000       .debug$S                   10000000     kernel32:KERNEL32.dll
 0000:fff82000       .debug$S                   10000000     kernel32:KERNEL32.dll
 0000:fff82000       .debug$S                   10000000     kernel32:KERNEL32.dll
 0000:fff82000       .debug$S                   10000000     kernel32:KERNEL32.dll
 0000:fff82000       .debug$S                   10000000     kernel32:KERNEL32.dll
 0000:fff82000       .debug$S                   10000000     kernel32:KERNEL32.dll
 0000:fff82000       .debug$S                   10000000     kernel32:KERNEL32.dll
 0000:fff82000       .debug$S                   10000000     kernel32:KERNEL32.dll
 0000:fff82000       .debug$S                   10000000     kernel32:KERNEL32.dll
 0000:fff82000       .debug$S                   10000000     kernel32:KERNEL32.dll
 0000:fff82000       .debug$S                   10000000     kernel32:KERNEL32.dll
 0000:fff82000       .debug$S                   10000000     kernel32:KERNEL32.dll
 0000:fff82000       .debug$S                   10000000     kernel32:KERNEL32.dll
 0000:fff82000       .debug$S                   10000000     kernel32:KERNEL32.dll
 0000:fff82000       .debug$S                   10000000     kernel32:KERNEL32.dll
 0000:fff82000       .debug$S                   10000000     kernel32:KERNEL32.dll
 0000:fff82000       .debug$S                   10000000     kernel32:KERNEL32.dll
 0000:fff82000       .debug$S                   10000000     kernel32:KERNEL32.dll
 0000:fff82000       .debug$S                   10000000     kernel32:KERNEL32.dll
 0000:fff82000       .debug$S                   10000000     kernel32:KERNEL32.dll
 0000:fff82000       .debug$S                   10000000     kernel32:KERNEL32.dll
 0000:fff82000       .debug$S                   10000000     kernel32:KERNEL32.dll
 0000:fff82000       .debug$S                   10000000     kernel32:KERNEL32.dll
 0000:fff82000       .debug$S                   10000000     kernel32:KERNEL32.dll
 0000:fff82000       .debug$S                   10000000     kernel32:KERNEL32.dll
 0000:fff82000       .debug$S                   10000000     kernel32:KERNEL32.dll
 0000:fff82000       .debug$S                   10000000     kernel32:KERNEL32.dll
 0000:fff82000       .debug$S                   10000000     kernel32:KERNEL32.dll
 0000:fff82000       .debug$S                   10000000     kernel32:KERNEL32.dll
 0000:fff82000       .debug$S                   10000000     kernel32:KERNEL32.dll
 0000:fff82000       .debug$S                   10000000     kernel32:KERNEL32.dll
 0000:fff82000       .debug$S                   10000000     kernel32:KERNEL32.dll
 0000:fff82000       .debug$S                   10000000     kernel32:KERNEL32.dll
 0000:fff82000       .debug$S                   10000000     kernel32:KERNEL32.dll
 0000:fff82000       .debug$S                   10000000     kernel32:KERNEL32.dll
 0000:fff82000       .debug$S                   10000000     kernel32:KERNEL32.dll
 0000:fff82000       .debug$S                   10000000     kernel32:KERNEL32.dll
 0000:fff82000       .debug$S                   10000000     kernel32:KERNEL32.dll
 0000:fff82000       .debug$S                   10000000     kernel32:KERNEL32.dll
 0000:fff82000       .debug$S                   10000000     kernel32:KERNEL32.dll
 0000:fff82000       .debug$S                   10000000     kernel32:KERNEL32.dll
 0000:fff82000       .debug$S                   10000000     kernel32:KERNEL32.dll
 0000:fff82000       .debug$S                   10000000     kernel32:KERNEL32.dll
 0000:fff82000       .debug$S                   10000000     kernel32:KERNEL32.dll
 0000:fff82000       .debug$S                   10000000     kernel32:KERNEL32.dll
 0000:fff82000       .debug$S                   10000000     kernel32:KERNEL32.dll
 0000:fff82000       .debug$S                   10000000     kernel32:KERNEL32.dll
 0000:fff82000       .debug$S                   10000000     kernel32:KERNEL32.dll
 0000:fff82000       .debug$S                   10000000     kernel32:KERNEL32.dll
 0000:fff82000       .debug$S                   10000000     kernel32:KERNEL32.dll
 0000:fff82000       .debug$S                   10000000     kernel32:KERNEL32.dll
 0000:fff82000       .debug$S                   10000000     kernel32:KERNEL32.dll
 0000:fff82000       .debug$S                   10000000     kernel32:KERNEL32.dll
 0000:fff82000       .debug$S                   10000000     kernel32:KERNEL32.dll
 0000:fff82000       .debug$S                   10000000     kernel32:KERNEL32.dll
 0000:fff82000       .debug$S                   10000000     kernel32:KERNEL32.dll
 0000:fff82000       .debug$S                   10000000     kernel32:KERNEL32.dll
 0000:fff82000       .debug$S                   10000000     iojs:node.dll
 0000:fff82000       .debug$S                   10000000     iojs:node.dll
 0000:fff82000       .debug$S                   10000000     iojs:node.dll
 0001:00000000       ??__E?constructor@SpellDictionary@Nodehun@@2V?$Persistent@VFunction@v8@@V?$NonCopyablePersistentTraits@VFunction@v8@@@2@@v8@@A@@YAXXZ 10001000 f   nodehun.obj
 0001:00000016       ??__Ecout@std@@YAXXZ       10001016 f   libcpmt:cout.obj
 0001:00000035       ??__Efout@std@@YAXXZ       10001035 f   libcpmt:cout.obj
 0001:0000006f       ??__Einit_cout@std@@YAXXZ  1000106f f   libcpmt:cout.obj
 0001:00000079       ??__Einitlocks@@YAXXZ      10001079 f   libcpmt:cout.obj
 0001:0000008f       ??__Einitlocks@std@@YAXXZ  1000108f f   libcpmt:xlock.obj
 0001:000000a5       ??__E_Fac_tidy_reg@std@@YAXXZ 100010a5 f   libcpmt:locale0.obj
 0001:000000b1       ??__Eclassic_locale@std@@YAXXZ 100010b1 f   libcpmt:locale0.obj
 0001:000000bd       ??__Einit_atexit@@YAXXZ    100010bd f   libcpmt:iosptrs.obj
 0001:000000c9       ??__Einitlocks@std@@YAXXZ  100010c9 f   libcpmt:iosptrs.obj
 0001:00003ce0       __register_nodehun         10004ce0 f   nodehun.obj
 0001:000056a8       $LN184                     100066a8     hunspell:hunspell.obj
 0001:00006ce4       $LN467                     10007ce4     hunspell:hunspell.obj
 0001:00006cf8       $LN468                     10007cf8     hunspell:hunspell.obj
 0001:00007b40       $LN228                     10008b40     hunspell:hunspell.obj
 0001:000083f0       ?HUNSPELL_WARNING@@YAXPAU_iobuf@@PBDZZ 100093f0 f   hunspell:csutil.obj
 0001:000083f0       ?HUNSPELL_WARNING@@YAXPAU_iobuf@@PBDZZ 100093f0 f   hunspell:affixmgr.obj
 0001:000083f0       ?HUNSPELL_WARNING@@YAXPAU_iobuf@@PBDZZ 100093f0 f   hunspell:hashmgr.obj
 0001:000085cc       $LN26                      100095cc     hunspell:csutil.obj
 0001:000085e4       $LN22                      100095e4     hunspell:csutil.obj
 0001:0000918c       $LN50                      1000a18c     hunspell:csutil.obj
 0001:00009194       $LN46                      1000a194     hunspell:csutil.obj
 0001:000091b8       $LN51                      1000a1b8     hunspell:csutil.obj
 0001:000091c0       $LN47                      1000a1c0     hunspell:csutil.obj
 0001:0001cc08       $LN201                     1001dc08     hunspell:affixmgr.obj
 0001:0001e194       $LN932                     1001f194     hunspell:affixmgr.obj
 0001:0001e1a4       $LN933                     1001f1a4     hunspell:affixmgr.obj
 0001:00020084       $LN153                     10021084     hunspell:affentry.obj
 0001:0002009c       $LN143                     1002109c     hunspell:affentry.obj
 0001:00020c7c       $LN171                     10021c7c     hunspell:affentry.obj
 0001:00020c94       $LN154                     10021c94     hunspell:affentry.obj
 0001:000231db       _no_op_initialize          100241db f i libucrt:wsetlocale.obj
 0001:0002363e       _memcpy_s                  1002463e f   libcpmt:cout.obj
 0001:00023da9       _tidy_global               10024da9 f   libcpmt:locale0.obj
 0001:000241d6       ?initialize_pointers@@YAHXZ 100251d6 f   libcpmt:winapisupp.obj
 0001:0002473d       ?find_pe_section@@YAPAU_IMAGE_SECTION_HEADER@@QAEI@Z 1002573d f   LIBCMT:utility.obj
 0001:00024a89       ?dllmain_crt_dispatch@@YGHQAUHINSTANCE__@@KQAX@Z 10025a89 f   LIBCMT:dll_dllmain.obj
 0001:00024adc       ?dllmain_crt_process_attach@@YAHQAUHINSTANCE__@@QAX@Z 10025adc f   LIBCMT:dll_dllmain.obj
 0001:00024bee       ?dllmain_crt_process_detach@@YAH_N@Z 10025bee f   LIBCMT:dll_dllmain.obj
 0001:00024c6b       ?dllmain_dispatch@@YAHQAUHINSTANCE__@@KQAX@Z 10025c6b f   LIBCMT:dll_dllmain.obj
 0001:00024d67       ?dllmain_raw@@YGHQAUHINSTANCE__@@KQAX@Z 10025d67 f   LIBCMT:dll_dllmain.obj
 0001:00024fb9       ?__scrt_initialize_thread_safe_statics@@YAHXZ 10025fb9 f   LIBCMT:thread_safe_statics.obj
 0001:00025079       ?__scrt_uninitialize_thread_safe_statics@@YAXXZ 10026079 f   LIBCMT:thread_safe_statics.obj
 0001:000252d0       $$000000                   100262d0     LIBCMT:alloca16.obj
 0001:00025300       $$000000                   10026300     LIBCMT:llmul.obj
 0001:00025340       $$000000                   10026340     LIBCMT:ulldiv.obj
 0001:000256e0       $$000000                   100266e0     LIBCMT:_sehprolg4_.obj
 0001:00025880       $$000000                   10026880     LIBCMT:chkstk.obj
 0001:000258b0       $$000000                   100268b0     libvcruntime:strstr.obj
 0001:00025b20       $$000000                   10026b20     libvcruntime:strchr.obj
 0001:00025c50       $$000000                   10026c50     libvcruntime:memmove.obj
 0001:00025eb4       TrailingUpVec              10026eb4     libvcruntime:memmove.obj
 0001:00025f60       TrailingDownVec            10026f60     libvcruntime:memmove.obj
 0001:000263b5       ?CallCatchBlock@@YAPAXPAUEHExceptionRecord@@PAUEHRegistrationNode@@PAU_CONTEXT@@PBU_s_FuncInfo@@PAXHK@Z 100273b5 f   libvcruntime:frame.obj
 0001:00026571       ?CallUnexpected@@YAXPBU_s_ESTypeList@@@Z 10027571 f   libvcruntime:frame.obj
 0001:00026591       __catch$?CallUnexpected@@YAXPBU_s_ESTypeList@@@Z$0 10027591 f   libvcruntime:frame.obj
 0001:000265ab       ?CatchIt@@YAXPAUEHExceptionRecord@@PAUEHRegistrationNode@@PAU_CONTEXT@@PAXPBU_s_FuncInfo@@PBU_s_HandlerType@@PBU_s_CatchableType@@PBU_s_TryBlockMapEntry@@H1E@Z 100275ab f   libvcruntime:frame.obj
 0001:00026626       ?ExFilterRethrow@@YAHPAU_EXCEPTION_POINTERS@@@Z 10027626 f   libvcruntime:frame.obj
 0001:00026670       ?FindHandler@@YAXPAUEHExceptionRecord@@PAUEHRegistrationNode@@PAU_CONTEXT@@PAXPBU_s_FuncInfo@@EH1@Z 10027670 f   libvcruntime:frame.obj
 0001:000269d8       ?FindHandlerForForeignException@@YAXPAUEHExceptionRecord@@PAUEHRegistrationNode@@PAU_CONTEXT@@PAXPBU_s_FuncInfo@@HH1@Z 100279d8 f   libvcruntime:frame.obj
 0001:00026af3       ?IsInExceptionSpec@@YAEPAUEHExceptionRecord@@PBU_s_ESTypeList@@@Z 10027af3 f   libvcruntime:frame.obj
 0001:00026b8f       ?Is_bad_exception_allowed@@YAEPBU_s_ESTypeList@@@Z 10027b8f f   libvcruntime:frame.obj
 0001:00027430       $$000000                   10028430     libvcruntime:memcpy.obj
 0001:00027694       TrailingUpVec              10028694     libvcruntime:memcpy.obj
 0001:00027740       TrailingDownVec            10028740     libvcruntime:memcpy.obj
 0001:000279b0       $$000000                   100289b0     libvcruntime:memset.obj
 0001:00027b10       $$000000                   10028b10     libvcruntime:memchr.obj
 0001:000292bd       $LN1281                    1002a2bd     libvcruntime:_memcmp_.obj
 0001:000293b0       _ValidateLocalCookies      1002a3b0 f   libvcruntime:_chandler4_.obj
 0001:00029573       ?try_get_function@@YAPAXW4function_id@?A0x89697e75@@QBDQBW4module_id@2@2@Z 1002a573 f   libvcruntime:winapi_downlevel.obj
 0001:00029613       ?try_get_module@@YAPAUHINSTANCE__@@W4module_id@?A0x89697e75@@@Z 1002a613 f   libvcruntime:winapi_downlevel.obj
 0001:00029a10       $$000000                   1002aa10     libvcruntime:lowhelpr.obj
 0001:00029ad0       $$000000                   1002aad0     libvcruntime:_exsup4_.obj
 0001:00029b60       __unwind_handler4          1002ab60 f   libvcruntime:_exsup4_.obj
 0001:00029c30       $$000000                   1002ac30     libvcruntime:_exsup_.obj
 0001:00029c50       __unwind_handler           1002ac50 f   libvcruntime:_exsup_.obj
 0001:00029d67       ??$common_assert_to_message_box@_W@@YAXQB_W0IQAX@Z 1002ad67 f   libucrt:assert.obj
 0001:00029e03       ??$common_assert_to_message_box_build_string@_W@@YAXQA_WIQB_W1IQAX@Z 1002ae03 f   libucrt:assert.obj
 0001:0002a348       ??$common_assert_to_stderr@_W@@YAXQB_W0I@Z 1002b348 f   libucrt:assert.obj
 0001:0002a3f3       ?common_assert_to_stderr_direct@@YAXQB_W0I@Z 1002b3f3 f   libucrt:assert.obj
 0001:0002a4a4       ?get_assert_format@@YAPB_W_W@Z 1002b4a4 f   libucrt:assert.obj
 0001:0002a840       $$000000                   1002b840     libucrt:strncpy.obj
 0001:0002a970       $$000000                   1002b970     libucrt:strncmp.obj
 0001:0002aada       ??$common_vsprintf@Vstandard_base@__crt_stdio_output@@D@@YAH_KQADIQBDQAU__crt_locale_pointers@@1@Z 1002bada f   libucrt:output.obj
 0001:0002ac56       ??$common_vsprintf@Vstandard_base@__crt_stdio_output@@_W@@YAH_KQA_WIQB_WQAU__crt_locale_pointers@@QAD@Z 1002bc56 f   libucrt:output.obj
 0001:0002b290       ??R<lambda_481dd5778c961fbcd3b60b650e9b9dc4>@@QBEHXZ 1002c290 f   libucrt:output.obj
 0001:0002b34d       ??R<lambda_4f2c1eaeead2a5fc776db5b62ea0fb9b>@@QBEHXZ 1002c34d f   libucrt:output.obj
 0001:0002b6d9       $LN54                      1002c6d9     libucrt:output.obj
 0001:0002b7f5       $LN54                      1002c7f5     libucrt:output.obj
 0001:0002b915       $LN54                      1002c915     libucrt:output.obj
 0001:0002ba35       $LN54                      1002ca35     libucrt:output.obj
 0001:0002cc4d       $LN19                      1002dc4d     libucrt:output.obj
 0001:0002e9fe       ?scale_count@@YA_J_J@Z     1002f9fe f   libucrt:clock.obj
 0001:0002eb27       ??$common_fsopen@D@@YAPAU_iobuf@@QBD0H@Z 1002fb27 f   libucrt:fopen.obj
 0001:0002ecf5       ??$common_fgets@D@@YAPADQADHV__crt_stdio_stream@@@Z 1002fcf5 f   libucrt:fgets.obj
 0001:0002f183       _common_flush_all          10030183 f   libucrt:fflush.obj
 0001:0002f641       ?common_fseek@@YAHV__crt_stdio_stream@@_JH@Z 10030641 f   libucrt:fseek.obj
 0001:0002f6c8       ?common_fseek_binary_mode_read_only_fast_track_nolock@@YA_NV__crt_stdio_stream@@_JH@Z 100306c8 f   libucrt:fseek.obj
 0001:0002f7a1       ?common_fseek_nolock@@YAHV__crt_stdio_stream@@_JH@Z 100307a1 f   libucrt:fseek.obj
 0001:0002f90e       ??R<lambda_b51c0495177f500e782686251704ae76>@@QBEIXZ 1003090e f   libucrt:fwrite.obj
 0001:0002fb9e       ??R<lambda_b721fa326cdb32351d23dfa67958c160>@@QBEHXZ 10030b9e f   libucrt:setvbuf.obj
 0001:0002fc38       ?set_buffer@@YAHV__crt_stdio_stream@@QADIH@Z 10030c38 f   libucrt:setvbuf.obj
 0001:000303c4       _call_wsetlocale           100313c4 f   libucrt:setlocale.obj
 0001:00030bc0       $$000000                   10031bc0     libucrt:strcspn.obj
 0001:00030c10       $$000000                   10031c10     libucrt:pow.obj
 0001:000311db       ?x_ismbbtype_l@@YAHPAU__crt_locale_pointers@@IHH@Z 100321db f   libucrt:ismbbyte.obj
 0001:0003124c       ??$common_tox_l@$1?internal_isupper_l@@YA_NHQAU__crt_locale_pointers@@@Z$1?internal_map_lower@@YAHH0@Z@@YAHHKQAU__crt_locale_pointers@@@Z 1003224c f   libucrt:tolower_toupper.obj
 0001:00031396       ?internal_isupper_l@@YA_NHQAU__crt_locale_pointers@@@Z 10032396 f   libucrt:tolower_toupper.obj
 0001:0003163a       ?atexit_exception_filter@@YAHK@Z 1003263a f   libucrt:exit.obj
 0001:0003164d       ?common_exit@@YAXHW4_crt_exit_cleanup_mode@@W4_crt_exit_return_mode@@@Z 1003264d f   libucrt:exit.obj
 0001:00031766       ?exit_or_terminate_process@@YAXI@Z 10032766 f   libucrt:exit.obj
 0001:000317a7       ?is_managed_app@@YA_NXZ    100327a7 f   libucrt:exit.obj
 0001:000317eb       ?try_cor_exit_process@@YAXI@Z 100327eb f   libucrt:exit.obj
 0001:0003188f       ??$common_configure_argv@D@@YAHW4_crt_argv_mode@@@Z 1003288f f   libucrt:argv_parsing.obj
 0001:000319b3       ??$parse_command_line@D@@YAXPADPAPAD0PAI2@Z 100329b3 f   libucrt:argv_parsing.obj
 0001:00031b88       ??$common_initialize_environment_nolock@D@@YAHXZ 10032b88 f   libucrt:environment_initialization.obj
 0001:00031be1       ??$create_environment@D@@YAQAPADQAD@Z 10032be1 f   libucrt:environment_initialization.obj
 0001:00031cb2       ??$free_environment@D@@YAXQAPAD@Z 10032cb2 f   libucrt:environment_initialization.obj
 0001:00031cb2       ??$free_environment@_W@@YAXQAPA_W@Z 10032cb2 f   libucrt:environment_initialization.obj
 0001:00031d21       ??$uninitialize_environment_internal@D@@YAXAAPAPAD@Z 10032d21 f   libucrt:environment_initialization.obj
 0001:00031d3c       ??$uninitialize_environment_internal@_W@@YAXAAPAPA_W@Z 10032d3c f   libucrt:environment_initialization.obj
 0001:00031e85       ??R<lambda_275893d493268fdec8709772e3fcec0e>@@QBEHXZ 10032e85 f   libucrt:onexit.obj
 0001:00031fa5       ??R<lambda_4e60a939b0d047cfe11ddc22648dfba9>@@QBEHXZ 10032fa5 f   libucrt:onexit.obj
 0001:0003217a       _initialize_global_variables 1003317a f   libucrt:initialization.obj
 0001:0003218c       _initialize_c              1003318c f   libucrt:initialization.obj
 0001:000321a6       _uninitialize_environment  100331a6 f   libucrt:initialization.obj
 0001:000321ae       _report_memory_leaks       100331ae f   libucrt:initialization.obj
 0001:000321ae       _initialize_environment    100331ae f   libucrt:initialization.obj
 0001:000321ae       _uninitialize_c            100331ae f   libucrt:initialization.obj
 0001:000321ae       _uninitialize_global_state_isolation 100331ae f   libucrt:initialization.obj
 0001:000321ae       _initialize_global_state_isolation 100331ae f   libucrt:initialization.obj
 0001:000321b1       _initialize_pointers       100331b1 f   libucrt:initialization.obj
 0001:000321ee       _uninitialize_vcruntime    100331ee f   libucrt:initialization.obj
 0001:000321f7       _uninitialize_allocated_memory 100331f7 f   libucrt:initialization.obj
 0001:0003244a       ??$common_xtox@K_W@@YAHKQA_WII_N@Z 1003344a f   libucrt:xtoa.obj
 0001:000324d8       ??$common_xtox_s@K_W@@YAHKQA_WII_N@Z 100334d8 f   libucrt:xtoa.obj
 0001:00032620       ??$common_tcsncat_s@_W@@YAHQA_WIQB_WI@Z 10033620 f   libucrt:wcsncat_s.obj
 0001:00032714       ??$common_show_message_box@_W@@YAHQB_W0I@Z 10033714 f   libucrt:crtmbox.obj
 0001:000327ed       ??$message_box_wait_thread@_W@@YGKQAX@Z 100337ed f   libucrt:crtmbox.obj
 0001:0003289c       ?get_global_action_nolock@@YAPAP6AXH@ZH@Z 1003389c f   libucrt:signal.obj
 0001:000328de       ?siglookup@@YAPAU__crt_signal_action_t@@HQAU1@@Z 100338de f   libucrt:signal.obj
 0001:00032d4d       ?construct_ptd@@YAXQAU__acrt_ptd@@QAPAU__crt_locale_data@@@Z 10033d4d f   libucrt:per_thread_data.obj
 0001:00032dc6       ?destroy_fls@@YGXPAX@Z     10033dc6 f   libucrt:per_thread_data.obj
 0001:00032de7       ?destroy_ptd@@YAXQAU__acrt_ptd@@@Z 10033de7 f   libucrt:per_thread_data.obj
 0001:00032e90       ?replace_current_thread_locale_nolock@@YAXQAU__acrt_ptd@@QAU__crt_locale_data@@@Z 10033e90 f   libucrt:per_thread_data.obj
 0001:00033156       ??R<lambda_2af78c5f5901b1372d98f9ab3177dfa6>@@QBEXXZ 10034156 f   libucrt:wsetlocale.obj
 0001:000331b2       ??R<lambda_e378711a6f6581bf7f0efd7cdf97f5d9>@@QBEXXZ 100341b2 f   libucrt:wsetlocale.obj
 0001:00033512       __copytlocinfo_nolock      10034512 f   libucrt:wsetlocale.obj
 0001:00033979       __wsetlocale_get_all       10034979 f   libucrt:wsetlocale.obj
 0001:00033b12       __wsetlocale_nolock        10034b12 f   libucrt:wsetlocale.obj
 0001:00033df7       __wsetlocale_set_cat       10034df7 f   libucrt:wsetlocale.obj
 0001:000344f7       ?fp_format_a@@YAHQBNPADIQADIH_NIQAU__crt_locale_pointers@@@Z 100354f7 f   libucrt:cvt.obj
 0001:000347fa       ?fp_format_e@@YAHQBNQADI1IH_NIQAU__crt_locale_pointers@@@Z 100357fa f   libucrt:cvt.obj
 0001:00034895       ?fp_format_e_internal@@YAHQADIH_NIQAU_strflt@@1QAU__crt_locale_pointers@@@Z 10035895 f   libucrt:cvt.obj
 0001:000349e0       ?fp_format_f@@YAHQBNQADI1IHQAU__crt_locale_pointers@@@Z 100359e0 f   libucrt:cvt.obj
 0001:00034a6d       ?fp_format_f_internal@@YAHQADIHQAU_strflt@@_NQAU__crt_locale_pointers@@@Z 10035a6d f   libucrt:cvt.obj
 0001:00034b44       ?fp_format_g@@YAHQBNQADI1IH_NIQAU__crt_locale_pointers@@@Z 10035b44 f   libucrt:cvt.obj
 0001:00034c0c       ?fp_format_nan_or_infinity@@YAHW4__acrt_fp_class@@_NPADI1@Z 10035c0c f   libucrt:cvt.obj
 0001:00034d04       ?shift_bytes@@YAXQADI0H@Z  10035d04 f   libucrt:cvt.obj
 0001:00034e82       ?fputwc_binary_nolock@@YAG_WV__crt_stdio_stream@@@Z 10035e82 f   libucrt:fputwc.obj
 0001:00035103       ?initialize_inherited_file_handles_nolock@@YAXXZ 10036103 f   libucrt:ioinit.obj
 0001:000351b9       ?initialize_stdio_handles_nolock@@YAXXZ 100361b9 f   libucrt:ioinit.obj
 0001:000352f1       ?<helper_func_stdcall>@<lambda_5a01b672d24c8480ee9d6bdb50dd3881>@@CGHPA_W@Z 100362f1 f   libucrt:winapi_thunks.obj
 0001:00035402       ?try_get_CompareStringEx@@YAP6GHPB_WK0H0HPAU_nlsversioninfo@@PAXJ@ZXZ 10036402 f   libucrt:winapi_thunks.obj
 0001:0003541c       ?try_get_MessageBoxA@@YAP6GHPAUHWND__@@PBD1I@ZXZ 1003641c f   libucrt:winapi_thunks.obj
 0001:00035436       ?try_get_MessageBoxW@@YAP6GHPAUHWND__@@PB_W1I@ZXZ 10036436 f   libucrt:winapi_thunks.obj
 0001:00035450       ?try_get_function@@YAPAXW4function_id@?A0x352e5c4b@@QBDQBW4module_id@2@2@Z 10036450 f   libucrt:winapi_thunks.obj
 0001:000354ec       ?try_get_module@@YAPAUHINSTANCE__@@W4module_id@?A0x352e5c4b@@@Z 100364ec f   libucrt:winapi_thunks.obj
 0001:00035f80       ?find_or_allocate_unused_stream_nolock@@YA?AV__crt_stdio_stream@@XZ 10036f80 f   libucrt:stream.obj
 0001:00036275       ??$common_openfile@D@@YAPAU_iobuf@@QBD0HV__crt_stdio_stream@@@Z 10037275 f   libucrt:openfile.obj
 0001:000365bd       ??$translate_text_mode_nolock@D@@YAHHQADI@Z 100375bd f   libucrt:read.obj
 0001:00036714       ??$translate_text_mode_nolock@_W@@YAHHQA_WI@Z 10037714 f   libucrt:read.obj
 0001:000368d4       ?translate_ansi_or_utf8_nolock@@YAHHQADIQA_WI@Z 100378d4 f   libucrt:read.obj
 0001:00036a24       ?translate_utf16_from_console_nolock@@YAHHQA_WI@Z 10037a24 f   libucrt:read.obj
 0001:00036f6d       ??$common_refill_and_read_nolock@D@@YAHV__crt_stdio_stream@@@Z 10037f6d f   libucrt:_filbuf.obj
 0001:00037228       ?write_double_translated_ansi_nolock@@YA?AUwrite_result@?A0x47fa6670@@HQBDI@Z 10038228 f   libucrt:write.obj
 0001:000373db       ?write_double_translated_unicode_nolock@@YA?AUwrite_result@?A0x47fa6670@@QBDI@Z 100383db f   libucrt:write.obj
 0001:00037448       ?write_requires_double_translation_nolock@@YA_NH@Z 10038448 f   libucrt:write.obj
 0001:000374be       ?write_text_ansi_nolock@@YA?AUwrite_result@?A0x47fa6670@@HQBDI@Z 100384be f   libucrt:write.obj
 0001:0003759d       ?write_text_utf16le_nolock@@YA?AUwrite_result@?A0x47fa6670@@HQBDI@Z 1003859d f   libucrt:write.obj
 0001:0003768b       ?write_text_utf8_nolock@@YA?AUwrite_result@?A0x47fa6670@@HQBDI@Z 1003868b f   libucrt:write.obj
 0001:00037aaf       ??$common_ftell@_J@@YA_JV__crt_stdio_stream@@@Z 10038aaf f   libucrt:ftell.obj
 0001:00037b2b       ??$common_ftell_nolock@_J@@YA_JV__crt_stdio_stream@@@Z 10038b2b f   libucrt:ftell.obj
 0001:00037cc0       ?common_ftell_read_mode_nolock@@YA_JV__crt_stdio_stream@@_J1@Z 10038cc0 f   libucrt:ftell.obj
 0001:00037e44       ?common_ftell_translated_utf8_nolock@@YA_JV__crt_stdio_stream@@_J@Z 10038e44 f   libucrt:ftell.obj
 0001:00037ff5       ??$common_flush_and_write_nolock@D@@YAHHV__crt_stdio_stream@@@Z 10038ff5 f   libucrt:_flsbuf.obj
 0001:00038106       ??$common_flush_and_write_nolock@_W@@YAHHV__crt_stdio_stream@@@Z 10039106 f   libucrt:_flsbuf.obj
 0001:0003821b       ??$write_buffer_nolock@D@@YA_NDV__crt_stdio_stream@@@Z 1003921b f   libucrt:_flsbuf.obj
 0001:000382e7       ??$write_buffer_nolock@_W@@YA_N_WV__crt_stdio_stream@@@Z 100392e7 f   libucrt:_flsbuf.obj
 0001:000383d1       ??$common_lseek@_J@@YA_JH_JH@Z 100393d1 f   libucrt:lseek.obj
 0001:000384d6       ??$common_lseek_nolock@_J@@YA_JH_JH@Z 100394d6 f   libucrt:lseek.obj
 0001:00038608       ?InternalGetLocaleInfoA@@YAHQAU__crt_locale_pointers@@QB_WKQADH@Z 10039608 f   libucrt:getlocaleinfoa.obj
 0001:000389d2       ?__acrt_LCMapStringA_stat@@YAHPAU__crt_locale_pointers@@PB_WKPBDHPADHHH@Z 100399d2 f   libucrt:lcmapstringa.obj
 0001:00038c3a       ?_mbstowcs_l_helper@@YAIPA_WPBDIPAU__crt_locale_pointers@@@Z 10039c3a f   libucrt:mbstowcs.obj
 0001:00038eb8       ?_wcstombs_l_helper@@YAIPADPB_WIPAU__crt_locale_pointers@@@Z 10039eb8 f   libucrt:wcstombs.obj
 0001:00039b90       $$000000                   1003ab90     libucrt:pow_pentium4.obj
 0001:0003a6b0       $$000000                   1003b6b0     libucrt:87tran.obj
 0001:0003a8b0       $$000000                   1003b8b0     libucrt:87disp.obj
 0001:0003aab0       $$000000                   1003bab0     libucrt:genexcep.obj
 0001:0003ab10       $$000000                   1003bb10     libucrt:common.obj
 0001:0003b047       ?<helper_func_cdecl>@<lambda_62bb7ecb46d0a77b591a051c43eb5ad1>@@CAHPBX0@Z 1003c047 f   libucrt:argv_wildcards.obj
 0001:0003b05f       ??$common_expand_argv_wildcards@D@@YAHQAPADQAPAPAD@Z 1003c05f f   libucrt:argv_wildcards.obj
 0001:0003b1ef       ??$copy_and_add_argument_to_buffer@D@@YAHQBD0IAAV?$argument_list@D@?A0xb0e4b824@@@Z 1003c1ef f   libucrt:argv_wildcards.obj
 0001:0003b285       ??$expand_argument_wildcards@D@@YAHQAD0AAV?$argument_list@D@?A0xb0e4b824@@@Z 1003c285 f   libucrt:argv_wildcards.obj
 0001:0003b560       ??R<lambda_ad1ced32f4ac17aa236e5ef05d6b3b7c>@@QBEXXZ 1003c560 f   libucrt:mbctype.obj
 0001:0003b624       ?CPtoLocaleName@@YAPB_WH@Z 1003c624 f   libucrt:mbctype.obj
 0001:0003b662       ?getSystemCP@@YAHH@Z       1003c662 f   libucrt:mbctype.obj
 0001:0003b6d5       ?setSBCS@@YAXPAU__crt_multibyte_data@@@Z 1003c6d5 f   libucrt:mbctype.obj
 0001:0003b73a       ?setSBUpLow@@YAXPAU__crt_multibyte_data@@@Z 1003c73a f   libucrt:mbctype.obj
 0001:0003b8ce       ?setmbcp_internal@@YAHH_N@Z 1003c8ce f   libucrt:mbctype.obj
 0001:0003bc99       ?find_end_of_double_null_terminated_sequence@@YAPB_WQB_W@Z 1003cc99 f   libucrt:get_environment_from_os.obj
 0001:0003bf11       ??$common_tcsncpy_s@_W@@YAHQA_WIQB_WI@Z 1003cf11 f   libucrt:wcsncpy_s.obj
 0001:0003cab9       ?free_crt_array_internal@@YAXQAPBXI@Z 1003dab9 f   libucrt:inittime.obj
 0001:0003caf5       ?initialize_lc_time@@YA_NQAU__crt_lc_time_data@@QAU__crt_locale_data@@@Z 1003daf5 f   libucrt:inittime.obj
 0001:0003cfa4       _GetLocaleNameFromDefault  1003dfa4 f   libucrt:get_qualified_locale.obj
 0001:0003d02d       _GetLocaleNameFromLangCountry 1003e02d f   libucrt:get_qualified_locale.obj
 0001:0003d0c7       _GetLocaleNameFromLanguage 1003e0c7 f   libucrt:get_qualified_locale.obj
 0001:0003d122       _GetPrimaryLen             1003e122 f   libucrt:get_qualified_locale.obj
 0001:0003d156       _LangCountryEnumProcEx@12  1003e156 f   libucrt:get_qualified_locale.obj
 0001:0003d440       _LanguageEnumProcEx@12     1003e440 f   libucrt:get_qualified_locale.obj
 0001:0003d501       _ProcessCodePage           1003e501 f   libucrt:get_qualified_locale.obj
 0001:0003d5e8       _TestDefaultCountry        1003e5e8 f   libucrt:get_qualified_locale.obj
 0001:0003d633       _TranslateName             1003e633 f   libucrt:get_qualified_locale.obj
 0001:0003d871       _CountryEnumProc@4         1003e871 f   libucrt:getqloc_downlevel.obj
 0001:0003d91a       _GetLcidFromCountry        1003e91a f   libucrt:getqloc_downlevel.obj
 0001:0003d965       _GetLcidFromLangCountry    1003e965 f   libucrt:getqloc_downlevel.obj
 0001:0003da00       _GetLcidFromLanguage       1003ea00 f   libucrt:getqloc_downlevel.obj
 0001:0003da61       _GetPrimaryLen             1003ea61 f   libucrt:getqloc_downlevel.obj
 0001:0003da8d       _LangCountryEnumProc@4     1003ea8d f   libucrt:getqloc_downlevel.obj
 0001:0003dcdd       _LanguageEnumProc@4        1003ecdd f   libucrt:getqloc_downlevel.obj
 0001:0003ddb5       _LcidFromHexString         1003edb5 f   libucrt:getqloc_downlevel.obj
 0001:0003de06       _ProcessCodePage           1003ee06 f   libucrt:getqloc_downlevel.obj
 0001:0003dee9       _TestDefaultCountry        1003eee9 f   libucrt:getqloc_downlevel.obj
 0001:0003df0d       _TestDefaultLanguage       1003ef0d f   libucrt:getqloc_downlevel.obj
 0001:0003df7d       _TranslateName             1003ef7d f   libucrt:getqloc_downlevel.obj
 0001:0003f663       _memcpy_s                  10040663 f   libucrt:assert.obj
 0001:0003f663       _memcpy_s                  10040663 f   libucrt:fread.obj
 0001:0003f663       _memcpy_s                  10040663 f   libucrt:mbctype.obj
 0001:0003f663       _memcpy_s                  10040663 f   libucrt:strtod.obj
 0001:0003f663       _memcpy_s                  10040663 f   libucrt:cfout.obj
 0001:0003fb68       ?GetTableIndexFromLocaleName@@YAHPB_W@Z 10040b68 f   libucrt:lcidtoname_downlevel.obj
 0001:0003ffd6       ??$common_sopen_dispatch@D@@YAHQBDHHHQAHH@Z 10040fd6 f   libucrt:open.obj
 0001:000400a2       ?configure_text_mode@@YAHHUfile_options@?A0x704126de@@HAAW4__crt_lowio_text_mode@@@Z 100410a2 f   libucrt:open.obj
 0001:000402ef       ?create_file@@YAPAXQB_WQAU_SECURITY_ATTRIBUTES@@Ufile_options@?A0x704126de@@@Z 100412ef f   libucrt:open.obj
 0001:00040314       ?decode_open_create_flags@@YAKH@Z 10041314 f   libucrt:open.obj
 0001:00040384       ?decode_options@@YA?AUfile_options@?A0x704126de@@HHH@Z 10041384 f   libucrt:open.obj
 0001:00040500       ?truncate_ctrl_z_if_present@@YAHH@Z 10041500 f   libucrt:open.obj
 0001:0004098f       ??$common_tcsncpy_s@D@@YAHQADIQBDI@Z 1004198f f   libucrt:strncpy_s.obj
 0001:00040a4b       ___get_abstract_control_sse2 10041a4b f   libucrt:_fenvutils.obj
 0001:00040ac8       ___get_abstract_control_x87 10041ac8 f   libucrt:_fenvutils.obj
 0001:00040b3b       ___get_machine_control     10041b3b f   libucrt:_fenvutils.obj
 0001:00040bac       ___get_machine_control_sse2 10041bac f   libucrt:_fenvutils.obj
 0001:00040c2c       ___get_machine_status_sse2 10041c2c f   libucrt:_fenvutils.obj
 0001:00040c8d       ___get_machine_status_x87  10041c8d f   libucrt:_fenvutils.obj
 0001:000412e0       ?shortsort@@YAXPAD0IP6AHPBX1@Z@Z 100422e0 f   libucrt:qsort.obj
 0001:00041380       ?swap@@YAXPAD0I@Z          10042380 f   libucrt:qsort.obj
 0001:00041760       $$000000                   10042760     libucrt:strpbrk.obj
 0001:00041844       ?initialize_multibyte@@YAHXZ 10042844 f   libucrt:multibyte_initializer.obj
 0001:00041940       $$000000                   10042940     libucrt:log10.obj
 0001:00041a90       $$000000                   10042a90     libucrt:ceil_pentium4.obj
 0001:00041bb0       $$000000                   10042bb0     libucrt:_strnicm.obj
 0001:000420c0       $$000000                   100430c0     libucrt:log10_pentium4.obj
 0001:00042570       $$000000                   10043570     LIBCMT:ulldvrm.obj
 0001:00042610       $$000000                   10043610     LIBCMT:lldiv.obj
 0001:000426c0       $$000000                   100436c0     LIBCMT:lldvrm.obj
 0001:000427a0       $$000000                   100437a0     LIBCMT:llshl.obj
 0001:000427c0       $$000000                   100437c0     LIBCMT:ullshr.obj
 0001:000427e0       $$000000                   100437e0     LIBCMT:_sehprolg4gs_.obj
 0001:00042840       $$000000                   10043840     LIBCMT:_ftol2_.obj
 0001:00042900       $$000000                   10043900     libvcruntime:strrchr.obj
 0001:00042ae5       __unwindfunclet$??$use_facet@V?$codecvt@DDU_Mbstatet@@@std@@@std@@YAABV?$codecvt@DDU_Mbstatet@@@0@ABVlocale@0@@Z$0 10043ae5 f   libcpmt:cout.obj
 0001:00042ae5       __unwindfunclet$??$use_facet@V?$ctype@D@std@@@std@@YAABV?$ctype@D@0@ABVlocale@0@@Z$0 10043ae5 f   libcpmt:cout.obj
 0001:00042aed       __ehhandler$??$use_facet@V?$codecvt@DDU_Mbstatet@@@std@@@std@@YAABV?$codecvt@DDU_Mbstatet@@@0@ABVlocale@0@@Z 10043aed f   libcpmt:cout.obj
 0001:00042aed       __ehhandler$??$use_facet@V?$ctype@D@std@@@std@@YAABV?$ctype@D@0@ABVlocale@0@@Z 10043aed f   libcpmt:cout.obj
 0001:00042b08       __unwindfunclet$??0?$basic_ostream@DU?$char_traits@D@std@@@std@@QAE@PAV?$basic_streambuf@DU?$char_traits@D@std@@@1@_N@Z$0 10043b08 f   libcpmt:cout.obj
 0001:00042b24       __ehhandler$??0?$basic_ostream@DU?$char_traits@D@std@@@std@@QAE@PAV?$basic_streambuf@DU?$char_traits@D@std@@@1@_N@Z 10043b24 f   libcpmt:cout.obj
 0001:00042b3f       __unwindfunclet$??0_Locinfo@std@@QAE@PBD@Z$0 10043b3f f   libcpmt:cout.obj
 0001:00042b47       __unwindfunclet$??0_Locinfo@std@@QAE@PBD@Z$1 10043b47 f   libcpmt:cout.obj
 0001:00042b52       __unwindfunclet$??0_Locinfo@std@@QAE@PBD@Z$2 10043b52 f   libcpmt:cout.obj
 0001:00042b5d       __unwindfunclet$??0_Locinfo@std@@QAE@PBD@Z$3 10043b5d f   libcpmt:cout.obj
 0001:00042b68       __unwindfunclet$??0_Locinfo@std@@QAE@PBD@Z$4 10043b68 f   libcpmt:cout.obj
 0001:00042b73       __unwindfunclet$??0_Locinfo@std@@QAE@PBD@Z$5 10043b73 f   libcpmt:cout.obj
 0001:00042b7e       __unwindfunclet$??0_Locinfo@std@@QAE@PBD@Z$6 10043b7e f   libcpmt:cout.obj
 0001:00042b89       __ehhandler$??0_Locinfo@std@@QAE@PBD@Z 10043b89 f   libcpmt:cout.obj
 0001:00042ba4       __ehhandler$??0locale@std@@QAE@ABV01@@Z 10043ba4 f   libcpmt:cout.obj
 0001:00042bbf       __ehhandler$??1?$basic_filebuf@DU?$char_traits@D@std@@@std@@UAE@XZ 10043bbf f   libcpmt:cout.obj
 0001:00042bbf       __ehhandler$??1_Init_atexit@@QAE@XZ 10043bbf f   libcpmt:iosptrs.obj
 0001:00042bbf       __ehhandler$??1_Locimp@locale@std@@MAE@XZ 10043bbf f   libcpmt:locale0.obj
 0001:00042bda       __unwindfunclet$??1?$basic_ios@DU?$char_traits@D@std@@@std@@UAE@XZ$0 10043bda f   libcpmt:cout.obj
 0001:00042bda       __unwindfunclet$??_D?$basic_ostream@DU?$char_traits@D@std@@@std@@QAEXXZ$2 10043bda f   libcpmt:cout.obj
 0001:00042be0       __ehhandler$??1?$basic_ios@DU?$char_traits@D@std@@@std@@UAE@XZ 10043be0 f   libcpmt:cout.obj
 0001:00042be0       __ehhandler$??_D?$basic_ostream@DU?$char_traits@D@std@@@std@@QAEXXZ 10043be0 f   libcpmt:cout.obj
 0001:00042bfb       __ehhandler$??1_Fac_node@std@@QAE@XZ 10043bfb f   libcpmt:locale0.obj
 0001:00042bfb       __ehhandler$??1locale@std@@QAE@XZ 10043bfb f   libcpmt:cout.obj
 0001:00042bfb       __ehhandler$??1_Locinfo@std@@QAE@XZ 10043bfb f   libcpmt:cout.obj
 0001:00042c16       __unwindfunclet$??_Gios_base@std@@UAEPAXI@Z$0 10043c16 f   libcpmt:cout.obj
 0001:00042c16       __unwindfunclet$??_G?$basic_ios@DU?$char_traits@D@std@@@std@@UAEPAXI@Z$1 10043c16 f   libcpmt:cout.obj
 0001:00042c1c       __ehhandler$??_Gios_base@std@@UAEPAXI@Z 10043c1c f   libcpmt:cout.obj
 0001:00042c1c       __ehhandler$??_G?$basic_ios@DU?$char_traits@D@std@@@std@@UAEPAXI@Z 10043c1c f   libcpmt:cout.obj
 0001:00042c37       __unwindfunclet$?_Endwrite@?$basic_filebuf@DU?$char_traits@D@std@@@std@@IAE_NXZ$0 10043c37 f   libcpmt:cout.obj
 0001:00042c3f       __ehhandler$?_Endwrite@?$basic_filebuf@DU?$char_traits@D@std@@@std@@IAE_NXZ 10043c3f f   libcpmt:cout.obj
 0001:00042c64       __unwindfunclet$?_Getcat@?$codecvt@DDU_Mbstatet@@@std@@SAIPAPBVfacet@locale@2@PBV42@@Z$0 10043c64 f   libcpmt:cout.obj
 0001:00042c71       __ehhandler$?_Getcat@?$codecvt@DDU_Mbstatet@@@std@@SAIPAPBVfacet@locale@2@PBV42@@Z 10043c71 f   libcpmt:cout.obj
 0001:00042c8c       __unwindfunclet$?_Getcat@?$ctype@D@std@@SAIPAPBVfacet@locale@2@PBV42@@Z$0 10043c8c f   libcpmt:cout.obj
 0001:00042c99       __ehhandler$?_Getcat@?$ctype@D@std@@SAIPAPBVfacet@locale@2@PBV42@@Z 10043c99 f   libcpmt:cout.obj
 0001:00042cb4       __unwindfunclet$?_Init@ios_base@std@@IAEXXZ$0 10043cb4 f   libcpmt:cout.obj
 0001:00042cb4       __unwindfunclet$??0?$basic_streambuf@DU?$char_traits@D@std@@@std@@IAE@XZ$0 10043cb4 f   libcpmt:cout.obj
 0001:00042cba       __ehhandler$?_Init@ios_base@std@@IAEXXZ 10043cba f   libcpmt:cout.obj
 0001:00042cba       __ehhandler$??0?$basic_streambuf@DU?$char_traits@D@std@@@std@@IAE@XZ 10043cba f   libcpmt:cout.obj
 0001:00042cd5       __unwindfunclet$?overflow@?$basic_filebuf@DU?$char_traits@D@std@@@std@@MAEHH@Z$0 10043cd5 f   libcpmt:cout.obj
 0001:00042cdd       __ehhandler$?overflow@?$basic_filebuf@DU?$char_traits@D@std@@@std@@MAEHH@Z 10043cdd f   libcpmt:cout.obj
 0001:00042d02       __unwindfunclet$?uflow@?$basic_filebuf@DU?$char_traits@D@std@@@std@@MAEHXZ$0 10043d02 f   libcpmt:cout.obj
 0001:00042d0a       __ehhandler$?uflow@?$basic_filebuf@DU?$char_traits@D@std@@@std@@MAEHXZ 10043d0a f   libcpmt:cout.obj
 0001:00042d2f       __unwindfunclet$?widen@?$basic_ios@DU?$char_traits@D@std@@@std@@QBEDD@Z$0 10043d2f f   libcpmt:cout.obj
 0001:00042d37       __ehhandler$?widen@?$basic_ios@DU?$char_traits@D@std@@@std@@QBEDD@Z 10043d37 f   libcpmt:cout.obj
 0001:00042d52       __unwindfunclet$?_Init@locale@std@@CAPAV_Locimp@12@_N@Z$0 10043d52 f   libcpmt:locale0.obj
 0001:00042d5a       __ehhandler$?_Init@locale@std@@CAPAV_Locimp@12@_N@Z 10043d5a f   libcpmt:locale0.obj
 0001:00042d75       __unwindfunclet$?_Locimp_dtor@_Locimp@locale@std@@CAXPAV123@@Z$0 10043d75 f   libcpmt:locale0.obj
 0001:00042d7d       __ehhandler$?_Locimp_dtor@_Locimp@locale@std@@CAXPAV123@@Z 10043d7d f   libcpmt:locale0.obj
 0001:00042d98       __ehhandler$?CallUnexpected@@YAXPBU_s_ESTypeList@@@Z 10043d98 f   libvcruntime:frame.obj
 0001:00042dc0       ??__F?constructor@SpellDictionary@Nodehun@@2V?$Persistent@VFunction@v8@@V?$NonCopyablePersistentTraits@VFunction@v8@@@2@@v8@@A@@YAXXZ 10043dc0 f   nodehun.obj
 0001:00042dd1       ??__Fcout@std@@YAXXZ       10043dd1 f   libcpmt:cout.obj
 0001:00042ddb       ??__Ffout@std@@YAXXZ       10043ddb f   libcpmt:cout.obj
 0001:00042de5       ??__Finitlocks@@YAXXZ      10043de5 f   libcpmt:cout.obj
 0001:00042def       ??__Finitlocks@std@@YAXXZ  10043def f   libcpmt:xlock.obj
 0001:00042df9       ??__F_Fac_tidy_reg@std@@YAXXZ 10043df9 f   libcpmt:locale0.obj
 0001:00042e03       ??__Fclassic_locale@std@@YAXXZ 10043e03 f   libcpmt:locale0.obj
 0001:00042e0d       ??__Finit_atexit@@YAXXZ    10043e0d f   libcpmt:iosptrs.obj
 0001:00042e17       ??__Finitlocks@std@@YAXXZ  10043e17 f   libcpmt:iosptrs.obj
 0002:00000214       ?initlocks$initializer$@@3P6AXXZA 10044214     libcpmt:cout.obj
 0002:00000218       ?fout$initializer$@std@@3P6AXXZA 10044218     libcpmt:cout.obj
 0002:0000021c       ?cout$initializer$@std@@3P6AXXZA 1004421c     libcpmt:cout.obj
 0002:00000220       ?init_cout$initializer$@std@@3P6AXXZA 10044220     libcpmt:cout.obj
 0002:00000224       ?initlocks$initializer$@std@@3P6AXXZA 10044224     libcpmt:xlock.obj
 0002:00000228       ?initlocks$initializer$@std@@3P6AXXZA 10044228     libcpmt:iosptrs.obj
 0002:0000022c       ?init_atexit$initializer$@@3P6AXXZA 1004422c     libcpmt:iosptrs.obj
 0002:00000230       ?_Fac_tidy_reg$initializer$@std@@3P6AXXZA 10044230     libcpmt:locale0.obj
 0002:00000234       ?classic_locale$initializer$@std@@3P6AXXZA 10044234     libcpmt:locale0.obj
 0002:00000238       ??constructor$initializer$@SpellDictionary@Nodehun@@2P6AXXZA@@3P6AXXZA 10044238     nodehun.obj
 0002:00000248       ?pinit@@3P6AHXZA           10044248     libcpmt:winapisupp.obj
 0002:0000024c       ?__scrt_initialize_tss_var@@3P6AHXZA 1004424c     LIBCMT:thread_safe_statics.obj
 0002:000008b0       ?_Win_errtab@std@@3QBU_Win_errtab_t@1@B 100448b0     libcpmt:syserror.obj
 0002:00000b00       ?_Sys_errtab@std@@3QBU_Sys_errtab_t@1@B 10044b00     libcpmt:syserror.obj
 0002:00001338       ?LcidToLocaleNameTable@@3QBULcidToLocaleName@@B 10045338     libcpmt:winapinls.obj
 0002:00001a58       ?LocaleNameToIndexTable@@3QBULocaleNameIndex@@B 10045a58     libcpmt:winapinls.obj
 0002:000033ec       _digits                    100473ec     libcpmt:xstoul.obj
 0002:00003414       _ndigs                     10047414     libcpmt:xstoul.obj
 0002:0000343c       _digits                    1004743c     libcpmt:xstoull.obj
 0002:00003464       _ndigs                     10047464     libcpmt:xstoull.obj
 0002:00003490       _GS_ExceptionPointers      10047490     LIBCMT:gs_report.obj
 0002:000034c4       ?ExceptionTemplate@?1??_CxxThrowException@@9@8@4UEHExceptionRecord@@B 100474c4     libvcruntime:throw.obj
 0002:00003504       ?module_names@?A0x89697e75@@3QBQB_WB 10047504     libvcruntime:winapi_downlevel.obj
 0002:000035b4       ?candidate_modules@?1??try_get_FlsAlloc@@YAP6GKP6GXPAX@Z@ZXZ@4QBW4module_id@?A0x89697e75@@B 100475b4     libvcruntime:winapi_downlevel.obj
 0002:000035bc       ?candidate_modules@?1??try_get_FlsFree@@YAP6GHK@ZXZ@4QBW4module_id@?A0x89697e75@@B 100475bc     libvcruntime:winapi_downlevel.obj
 0002:000035c4       ?candidate_modules@?1??try_get_FlsGetValue@@YAP6GPAXK@ZXZ@4QBW4module_id@?A0x89697e75@@B 100475c4     libvcruntime:winapi_downlevel.obj
 0002:000035cc       ?candidate_modules@?1??try_get_FlsSetValue@@YAP6GHKPAX@ZXZ@4QBW4module_id@?A0x89697e75@@B 100475cc     libvcruntime:winapi_downlevel.obj
 0002:000035d4       ?candidate_modules@?1??try_get_InitializeCriticalSectionEx@@YAP6GHPAU_RTL_CRITICAL_SECTION@@KK@ZXZ@4QBW4module_id@?A0x89697e75@@B 100475d4     libvcruntime:winapi_downlevel.obj
 0002:000035e0       ?tokenTable@@3QBQBDB       100475e0     libvcruntime:undname.obj
 0002:00003618       ?nameTable@@3QBQBDB        10047618     libvcruntime:undname.obj
 0002:0000375c       ?rttiTable@@3QBQBDB        1004775c     libvcruntime:undname.obj
 0002:00004060       _errtable                  10048060     libucrt:errno.obj
 0002:000053a0       POW_name                   100493a0     libucrt:pow.obj
 0002:00005478       ___acrt_initializers       10049478     libucrt:initialization.obj
 0002:000055b8       __first_127char            100495b8     libucrt:wsetlocale.obj
 0002:00005b58       _module_names              10049b58     libucrt:winapi_thunks.obj
 0002:00005ff8       ?candidate_modules@?1??try_get_AreFileApisANSI@@YAP6GHXZXZ@4QBW4module_id@?A0x352e5c4b@@B 10049ff8     libucrt:winapi_thunks.obj
 0002:0000600c       ?candidate_modules@?1??try_get_CompareStringEx@@YAP6GHPB_WK0H0HPAU_nlsversioninfo@@PAXJ@ZXZ@4QBW4module_id@?A0x352e5c4b@@B 1004a00c     libucrt:winapi_thunks.obj
 0002:00006014       ?candidate_modules@?1??try_get_EnumSystemLocalesEx@@YAP6GHP6GHPA_WKJ@ZKJPAX@ZXZ@4QBW4module_id@?A0x352e5c4b@@B 1004a014     libucrt:winapi_thunks.obj
 0002:00006030       ?candidate_modules@?1??try_get_FlsAlloc@@YAP6GKP6GXPAX@Z@ZXZ@4QBW4module_id@?A0x352e5c4b@@B 1004a030     libucrt:winapi_thunks.obj
 0002:00006038       ?candidate_modules@?1??try_get_FlsFree@@YAP6GHK@ZXZ@4QBW4module_id@?A0x352e5c4b@@B 1004a038     libucrt:winapi_thunks.obj
 0002:00006040       ?candidate_modules@?1??try_get_FlsGetValue@@YAP6GPAXK@ZXZ@4QBW4module_id@?A0x352e5c4b@@B 1004a040     libucrt:winapi_thunks.obj
 0002:00006048       ?candidate_modules@?1??try_get_FlsSetValue@@YAP6GHKPAX@ZXZ@4QBW4module_id@?A0x352e5c4b@@B 1004a048     libucrt:winapi_thunks.obj
 0002:00006050       ?candidate_modules@?1??try_get_GetActiveWindow@@YAP6GPAUHWND__@@XZXZ@4QBW4module_id@?A0x352e5c4b@@B 1004a050     libucrt:winapi_thunks.obj
 0002:00006068       ?candidate_modules@?1??try_get_GetCurrentPackageId@@YAP6GJPAIPAE@ZXZ@4QBW4module_id@?A0x352e5c4b@@B 1004a068     libucrt:winapi_thunks.obj
 0002:00006070       ?candidate_modules@?1??try_get_GetLastActivePopup@@YAP6GPAUHWND__@@PAU2@@ZXZ@4QBW4module_id@?A0x352e5c4b@@B 1004a070     libucrt:winapi_thunks.obj
 0002:0000608c       ?candidate_modules@?1??try_get_GetLocaleInfoEx@@YAP6GHPB_WKPA_WH@ZXZ@4QBW4module_id@?A0x352e5c4b@@B 1004a08c     libucrt:winapi_thunks.obj
 0002:00006094       ?candidate_modules@?1??try_get_GetProcessWindowStation@@YAP6GPAUHWINSTA__@@XZXZ@4QBW4module_id@?A0x352e5c4b@@B 1004a094     libucrt:winapi_thunks.obj
 0002:000060b4       ?candidate_modules@?1??try_get_GetUserDefaultLocaleName@@YAP6GHPA_WH@ZXZ@4QBW4module_id@?A0x352e5c4b@@B 1004a0b4     libucrt:winapi_thunks.obj
 0002:000060d8       ?candidate_modules@?1??try_get_GetUserObjectInformationW@@YAP6GHPAXH0KPAK@ZXZ@4QBW4module_id@?A0x352e5c4b@@B 1004a0d8     libucrt:winapi_thunks.obj
 0002:000060fc       ?candidate_modules@?1??try_get_InitializeCriticalSectionEx@@YAP6GHPAU_RTL_CRITICAL_SECTION@@KK@ZXZ@4QBW4module_id@?A0x352e5c4b@@B 1004a0fc     libucrt:winapi_thunks.obj
 0002:00006104       ?candidate_modules@?1??try_get_IsValidLocaleName@@YAP6GHPB_W@ZXZ@4QBW4module_id@?A0x352e5c4b@@B 1004a104     libucrt:winapi_thunks.obj
 0002:00006120       ?candidate_modules@?1??try_get_LCMapStringEx@@YAP6GHPB_WK0HPA_WHPAU_nlsversioninfo@@PAXJ@ZXZ@4QBW4module_id@?A0x352e5c4b@@B 1004a120     libucrt:winapi_thunks.obj
 0002:00006128       ?candidate_modules@?1??try_get_LCIDToLocaleName@@YAP6GHKPA_WHK@ZXZ@4QBW4module_id@?A0x352e5c4b@@B 1004a128     libucrt:winapi_thunks.obj
 0002:00006144       ?candidate_modules@?1??try_get_LocaleNameToLCID@@YAP6GKPB_WK@ZXZ@4QBW4module_id@?A0x352e5c4b@@B 1004a144     libucrt:winapi_thunks.obj
 0002:00006160       ?candidate_modules@?1??try_get_MessageBoxA@@YAP6GHPAUHWND__@@PBD1I@ZXZ@4QBW4module_id@?A0x352e5c4b@@B 1004a160     libucrt:winapi_thunks.obj
 0002:00006174       ?candidate_modules@?1??try_get_MessageBoxW@@YAP6GHPAUHWND__@@PB_W1I@ZXZ@4QBW4module_id@?A0x352e5c4b@@B 1004a174     libucrt:winapi_thunks.obj
 0002:00006248       ?_names@?1??_get_fname@@9@9 1004a248     libucrt:fpexcept.obj
 0002:00006370       _over                      1004a370     libucrt:fpctrl.obj
 0002:0000637c       _under                     1004a37c     libucrt:fpctrl.obj
 0002:00006390       Shifter                    1004a390     libucrt:pow_pentium4.obj
 0002:000063a0       SIGMASK                    1004a3a0     libucrt:pow_pentium4.obj
 0002:000063b0       ONEMASK                    1004a3b0     libucrt:pow_pentium4.obj
 0002:000063c0       ABSVALMASK                 1004a3c0     libucrt:pow_pentium4.obj
 0002:000063d0       cev                        1004a3d0     libucrt:pow_pentium4.obj
 0002:000063f8       HALFSIG                    1004a3f8     libucrt:pow_pentium4.obj
 0002:00006400       LHN                        1004a400     libucrt:pow_pentium4.obj
 0002:00006408       sNaN                       1004a408     libucrt:pow_pentium4.obj
 0002:00006410       INF                        1004a410     libucrt:pow_pentium4.obj
 0002:00006418       NEG_INF                    1004a418     libucrt:pow_pentium4.obj
 0002:00006420       NEG_ZERO                   1004a420     libucrt:pow_pentium4.obj
 0002:00006428       NEG_BIG                    1004a428     libucrt:pow_pentium4.obj
 0002:00006430       POS_BIG                    1004a430     libucrt:pow_pentium4.obj
 0002:00006438       EMIN                       1004a438     libucrt:pow_pentium4.obj
 0002:00006440       QIND                       1004a440     libucrt:pow_pentium4.obj
 0002:0000646e       _log2max                   1004a46e     libucrt:87tran.obj
 0002:00006478       _smallarg                  1004a478     libucrt:87tran.obj
 0002:00006482       _half                      1004a482     libucrt:87tran.obj
 0002:000064ce       One                        1004a4ce     libucrt:87disp.obj
 0002:000064d6       Three                      1004a4d6     libucrt:87disp.obj
 0002:000064de       XAMtoTagTab                1004a4de     libucrt:87disp.obj
 0002:000064f0       One                        1004a4f0     libucrt:common.obj
 0002:00006504       DblMax                     1004a504     libucrt:common.obj
 0002:0000650c       DblMin                     1004a50c     libucrt:common.obj
 0002:00006514       IeeeAdjO                   1004a514     libucrt:common.obj
 0002:0000651c       IeeeAdjU                   1004a51c     libucrt:common.obj
 0002:00006524       _infinity                  1004a524     libucrt:common.obj
 0002:0000652c       _zero                      1004a52c     libucrt:common.obj
 0002:00006540       __mb_locale_names          1004a540     libucrt:mbctype.obj
 0002:00007328       _LcidToLocaleNameTable     1004b328     libucrt:lcidtoname_downlevel.obj
 0002:00007a48       _LocaleNameToIndexTable    1004ba48     libucrt:lcidtoname_downlevel.obj
 0002:0000b9f0       LOG_name                   1004f9f0     libucrt:log10.obj
 0002:0000ba00       _One                       1004fa00     libucrt:ceil_pentium4.obj
 0002:0000ba10       _Bns                       1004fa10     libucrt:ceil_pentium4.obj
 0002:0000ba20       _Zero                      1004fa20     libucrt:ceil_pentium4.obj
 0002:0000ba30       _S                         1004fa30     libucrt:ceil_pentium4.obj
 0002:0000ba40       _NegZero                   1004fa40     libucrt:ceil_pentium4.obj
 0002:0000ba60       emask                      1004fa60     libucrt:log10_pentium4.obj
 0002:0000ba70       CC                         1004fa70     libucrt:log10_pentium4.obj
 0002:0000ba80       Magic                      1004fa80     libucrt:log10_pentium4.obj
 0002:0000ba90       hi_mask                    1004fa90     libucrt:log10_pentium4.obj
 0002:0000baa0       LOG10_2                    1004faa0     libucrt:log10_pentium4.obj
 0002:0000bab0       place_L                    1004fab0     libucrt:log10_pentium4.obj
 0002:0000bad0       One                        1004fad0     libucrt:log10_pentium4.obj
 0002:0000bae0       Zero                       1004fae0     libucrt:log10_pentium4.obj
 0002:0000baf0       Two52                      1004faf0     libucrt:log10_pentium4.obj
 0002:0000bb00       Infs                       1004fb00     libucrt:log10_pentium4.obj
 0002:0000bb10       NaN                        1004fb10     libucrt:log10_pentium4.obj
 0002:0000bb20       coeff                      1004fb20     libucrt:log10_pentium4.obj
 0002:0000cd90       ?W_VLINE@@3Uw_char@@B      10050d90     hunspell:suggestmgr.obj
 0002:0000e2c0       __ehfuncinfo$??0_Locinfo@std@@QAE@PBD@Z 100522c0     libcpmt:cout.obj
 0002:0000e2e4       __unwindtable$??0_Locinfo@std@@QAE@PBD@Z 100522e4     libcpmt:cout.obj
 0002:0000e31c       __ehfuncinfo$??1_Init_atexit@@QAE@XZ 1005231c     libcpmt:iosptrs.obj
 0002:0000e31c       __ehfuncinfo$??1_Fac_node@std@@QAE@XZ 1005231c     libcpmt:locale0.obj
 0002:0000e31c       __ehfuncinfo$??1_Locimp@locale@std@@MAE@XZ 1005231c     libcpmt:locale0.obj
 0002:0000e31c       __ehfuncinfo$??1locale@std@@QAE@XZ 1005231c     libcpmt:cout.obj
 0002:0000e31c       __ehfuncinfo$??1?$basic_filebuf@DU?$char_traits@D@std@@@std@@UAE@XZ 1005231c     libcpmt:cout.obj
 0002:0000e31c       __ehfuncinfo$??1_Locinfo@std@@QAE@XZ 1005231c     libcpmt:cout.obj
 0002:0000e31c       __ehfuncinfo$??0locale@std@@QAE@ABV01@@Z 1005231c     libcpmt:cout.obj
 0002:0000e340       __unwindtable$?_Getcat@?$ctype@D@std@@SAIPAPBVfacet@locale@2@PBV42@@Z 10052340     libcpmt:cout.obj
 0002:0000e348       __ehfuncinfo$?_Getcat@?$ctype@D@std@@SAIPAPBVfacet@locale@2@PBV42@@Z 10052348     libcpmt:cout.obj
 0002:0000e36c       __unwindtable$??$use_facet@V?$codecvt@DDU_Mbstatet@@@std@@@std@@YAABV?$codecvt@DDU_Mbstatet@@@0@ABVlocale@0@@Z 1005236c     libcpmt:cout.obj
 0002:0000e36c       __unwindtable$??$use_facet@V?$ctype@D@std@@@std@@YAABV?$ctype@D@0@ABVlocale@0@@Z 1005236c     libcpmt:cout.obj
 0002:0000e374       __ehfuncinfo$??$use_facet@V?$codecvt@DDU_Mbstatet@@@std@@@std@@YAABV?$codecvt@DDU_Mbstatet@@@0@ABVlocale@0@@Z 10052374     libcpmt:cout.obj
 0002:0000e374       __ehfuncinfo$??$use_facet@V?$ctype@D@std@@@std@@YAABV?$ctype@D@0@ABVlocale@0@@Z 10052374     libcpmt:cout.obj
 0002:0000e398       __unwindtable$??0?$basic_streambuf@DU?$char_traits@D@std@@@std@@IAE@XZ 10052398     libcpmt:cout.obj
 0002:0000e398       __unwindtable$?_Init@ios_base@std@@IAEXXZ 10052398     libcpmt:cout.obj
 0002:0000e3a0       __ehfuncinfo$??0?$basic_streambuf@DU?$char_traits@D@std@@@std@@IAE@XZ 100523a0     libcpmt:cout.obj
 0002:0000e3a0       __ehfuncinfo$?_Init@ios_base@std@@IAEXXZ 100523a0     libcpmt:cout.obj
 0002:0000e3c4       __unwindtable$??_G?$basic_ios@DU?$char_traits@D@std@@@std@@UAEPAXI@Z 100523c4     libcpmt:cout.obj
 0002:0000e3c4       __unwindtable$??_Gios_base@std@@UAEPAXI@Z 100523c4     libcpmt:cout.obj
 0002:0000e3cc       __ehfuncinfo$??_G?$basic_ios@DU?$char_traits@D@std@@@std@@UAEPAXI@Z 100523cc     libcpmt:cout.obj
 0002:0000e3cc       __ehfuncinfo$??_Gios_base@std@@UAEPAXI@Z 100523cc     libcpmt:cout.obj
 0002:0000e3f0       __unwindtable$?overflow@?$basic_filebuf@DU?$char_traits@D@std@@@std@@MAEHH@Z 100523f0     libcpmt:cout.obj
 0002:0000e3f8       __ehfuncinfo$?overflow@?$basic_filebuf@DU?$char_traits@D@std@@@std@@MAEHH@Z 100523f8     libcpmt:cout.obj
 0002:0000e41c       __unwindtable$?uflow@?$basic_filebuf@DU?$char_traits@D@std@@@std@@MAEHXZ 1005241c     libcpmt:cout.obj
 0002:0000e424       __ehfuncinfo$?uflow@?$basic_filebuf@DU?$char_traits@D@std@@@std@@MAEHXZ 10052424     libcpmt:cout.obj
 0002:0000e448       __unwindtable$?_Endwrite@?$basic_filebuf@DU?$char_traits@D@std@@@std@@IAE_NXZ 10052448     libcpmt:cout.obj
 0002:0000e450       __ehfuncinfo$?_Endwrite@?$basic_filebuf@DU?$char_traits@D@std@@@std@@IAE_NXZ 10052450     libcpmt:cout.obj
 0002:0000e474       __unwindtable$??1?$basic_ios@DU?$char_traits@D@std@@@std@@UAE@XZ 10052474     libcpmt:cout.obj
 0002:0000e474       __unwindtable$??_D?$basic_ostream@DU?$char_traits@D@std@@@std@@QAEXXZ 10052474     libcpmt:cout.obj
 0002:0000e47c       __ehfuncinfo$??1?$basic_ios@DU?$char_traits@D@std@@@std@@UAE@XZ 1005247c     libcpmt:cout.obj
 0002:0000e47c       __ehfuncinfo$??_D?$basic_ostream@DU?$char_traits@D@std@@@std@@QAEXXZ 1005247c     libcpmt:cout.obj
 0002:0000e4a0       __unwindtable$?widen@?$basic_ios@DU?$char_traits@D@std@@@std@@QBEDD@Z 100524a0     libcpmt:cout.obj
 0002:0000e4a8       __ehfuncinfo$?widen@?$basic_ios@DU?$char_traits@D@std@@@std@@QBEDD@Z 100524a8     libcpmt:cout.obj
 0002:0000e4cc       __unwindtable$??0?$basic_ostream@DU?$char_traits@D@std@@@std@@QAE@PAV?$basic_streambuf@DU?$char_traits@D@std@@@1@_N@Z 100524cc     libcpmt:cout.obj
 0002:0000e4d4       __ehfuncinfo$??0?$basic_ostream@DU?$char_traits@D@std@@@std@@QAE@PAV?$basic_streambuf@DU?$char_traits@D@std@@@1@_N@Z 100524d4     libcpmt:cout.obj
 0002:0000e4f8       __unwindtable$?_Getcat@?$codecvt@DDU_Mbstatet@@@std@@SAIPAPBVfacet@locale@2@PBV42@@Z 100524f8     libcpmt:cout.obj
 0002:0000e500       __ehfuncinfo$?_Getcat@?$codecvt@DDU_Mbstatet@@@std@@SAIPAPBVfacet@locale@2@PBV42@@Z 10052500     libcpmt:cout.obj
 0002:0000e55c       __unwindtable$?_Locimp_dtor@_Locimp@locale@std@@CAXPAV123@@Z 1005255c     libcpmt:locale0.obj
 0002:0000e564       __ehfuncinfo$?_Locimp_dtor@_Locimp@locale@std@@CAXPAV123@@Z 10052564     libcpmt:locale0.obj
 0002:0000e588       __unwindtable$?_Init@locale@std@@CAPAV_Locimp@12@_N@Z 10052588     libcpmt:locale0.obj
 0002:0000e590       __ehfuncinfo$?_Init@locale@std@@CAPAV_Locimp@12@_N@Z 10052590     libcpmt:locale0.obj
 0002:0000e5b8       __sehtable$___scrt_is_nonwritable_in_current_image 100525b8     LIBCMT:utility.obj
 0002:0000e5d8       __sehtable$?dllmain_crt_process_attach@@YAHQAUHINSTANCE__@@QAX@Z 100525d8     LIBCMT:dll_dllmain.obj
 0002:0000e5f8       __sehtable$?dllmain_crt_process_detach@@YAH_N@Z 100525f8     LIBCMT:dll_dllmain.obj
 0002:0000e618       __sehtable$?dllmain_dispatch@@YAHQAUHINSTANCE__@@KQAX@Z 10052618     LIBCMT:dll_dllmain.obj
 0002:0000e670       __sehtable$___FrameUnwindToState 10052670     libvcruntime:frame.obj
 0002:0000e698       __sehtable$?CallCatchBlock@@YAPAXPAUEHExceptionRecord@@PAUEHRegistrationNode@@PAU_CONTEXT@@PBU_s_FuncInfo@@PAXHK@Z 10052698     libvcruntime:frame.obj
 0002:0000e6c0       __sehtable$___BuildCatchObject 100526c0     libvcruntime:frame.obj
 0002:0000e6e0       __sehtable$___DestructExceptionObject 100526e0     libvcruntime:frame.obj
 0002:0000e6fc       __catchsym$?CallUnexpected@@YAXPBU_s_ESTypeList@@@Z$2 100526fc     libvcruntime:frame.obj
 0002:0000e70c       __unwindtable$?CallUnexpected@@YAXPBU_s_ESTypeList@@@Z 1005270c     libvcruntime:frame.obj
 0002:0000e71c       __tryblocktable$?CallUnexpected@@YAXPBU_s_ESTypeList@@@Z 1005271c     libvcruntime:frame.obj
 0002:0000e730       __ehfuncinfo$?CallUnexpected@@YAXPBU_s_ESTypeList@@@Z 10052730     libvcruntime:frame.obj
 0002:0000e758       __sehtable$___BuildCatchObjectHelper 10052758     libvcruntime:frame.obj
 0002:0000e7b0       __sehtable$??$?RV<lambda_db08b09ef7aa9d4f8620ce68402612bc>@@AAV<lambda_4f2c1eaeead2a5fc776db5b62ea0fb9b>@@V<lambda_3ae262bc35d4ba6a3825c4f6bcaaf95c>@@@?$__crt_seh_guarded_call@H@@QAEH$$QAV<lambda_db08b09ef7aa9d4f8620ce68402612bc>@@AAV<lambda_4f2c1eaeead2a5fc776db5b62ea0fb9b>@@$$QAV<lambda_3ae262bc35d4ba6a3825c4f6bcaaf95c>@@@Z 100527b0     libucrt:output.obj
 0002:0000e7d0       __sehtable$??$?RV<lambda_ab9923ffb5d694ec0d78876dd103e44f>@@AAV<lambda_481dd5778c961fbcd3b60b650e9b9dc4>@@V<lambda_7923d86c9e3f319b415918ec4b39749c>@@@?$__crt_seh_guarded_call@H@@QAEH$$QAV<lambda_ab9923ffb5d694ec0d78876dd103e44f>@@AAV<lambda_481dd5778c961fbcd3b60b650e9b9dc4>@@$$QAV<lambda_7923d86c9e3f319b415918ec4b39749c>@@@Z 100527d0     libucrt:output.obj
 0002:0000e7f0       __sehtable$??$common_fsopen@D@@YAPAU_iobuf@@QBD0H@Z 100527f0     libucrt:fopen.obj
 0002:0000e810       __sehtable$_fclose         10052810     libucrt:fclose.obj
 0002:0000e830       __sehtable$??$common_fgets@D@@YAPADQADHV__crt_stdio_stream@@@Z 10052830     libucrt:fgets.obj
 0002:0000e850       __sehtable$_fread_s        10052850     libucrt:fread.obj
 0002:0000e870       __sehtable$_fflush         10052870     libucrt:fflush.obj
 0002:0000e890       __sehtable$_common_flush_all 10052890     libucrt:fflush.obj
 0002:0000e8b8       __sehtable$_fgetc          100528b8     libucrt:fgetc.obj
 0002:0000e8d8       __sehtable$_fputc          100528d8     libucrt:fputc.obj
 0002:0000e8f8       __sehtable$?common_fseek@@YAHV__crt_stdio_stream@@_JH@Z 100528f8     libucrt:fseek.obj
 0002:0000e918       __sehtable$??$?RV<lambda_11b4f7b0d3157825a5656a18eba1ae27>@@AAV<lambda_b51c0495177f500e782686251704ae76>@@V<lambda_cf89b47920b5017557bfe891e78aca36>@@@?$__crt_seh_guarded_call@I@@QAEI$$QAV<lambda_11b4f7b0d3157825a5656a18eba1ae27>@@AAV<lambda_b51c0495177f500e782686251704ae76>@@$$QAV<lambda_cf89b47920b5017557bfe891e78aca36>@@@Z 10052918     libucrt:fwrite.obj
 0002:0000e938       __sehtable$??$?RV<lambda_d92cfe8357b99225085016881b624cb0>@@AAV<lambda_b721fa326cdb32351d23dfa67958c160>@@V<lambda_42d75b0848218ec137fa420c8ba9fdf9>@@@?$__crt_seh_guarded_call@H@@QAEH$$QAV<lambda_d92cfe8357b99225085016881b624cb0>@@AAV<lambda_b721fa326cdb32351d23dfa67958c160>@@$$QAV<lambda_42d75b0848218ec137fa420c8ba9fdf9>@@@Z 10052938     libucrt:setvbuf.obj
 0002:0000e958       __sehtable$_ungetc         10052958     libucrt:ungetc.obj
 0002:0000e978       __sehtable$_setlocale      10052978     libucrt:setlocale.obj
 0002:0000e998       __sehtable$__query_new_handler 10052998     libucrt:new_handler.obj
 0002:0000e9b8       __sehtable$?common_exit@@YAXHW4_crt_exit_cleanup_mode@@W4_crt_exit_return_mode@@@Z 100529b8     libucrt:exit.obj
 0002:0000e9e0       __sehtable$??$?RV<lambda_800076c951b434888f4765a74a194fcc>@@AAV<lambda_4e60a939b0d047cfe11ddc22648dfba9>@@V<lambda_6dbb1268764f43b569ce7b67e331d33a>@@@?$__crt_seh_guarded_call@H@@QAEH$$QAV<lambda_800076c951b434888f4765a74a194fcc>@@AAV<lambda_4e60a939b0d047cfe11ddc22648dfba9>@@$$QAV<lambda_6dbb1268764f43b569ce7b67e331d33a>@@@Z 100529e0     libucrt:onexit.obj
 0002:0000ea00       __sehtable$??$?RV<lambda_995298e7d72eb4c2aab26c0585b3abe5>@@AAV<lambda_275893d493268fdec8709772e3fcec0e>@@V<lambda_293819299cbf9a7022e18b56a874bb5c>@@@?$__crt_seh_guarded_call@H@@QAEH$$QAV<lambda_995298e7d72eb4c2aab26c0585b3abe5>@@AAV<lambda_275893d493268fdec8709772e3fcec0e>@@$$QAV<lambda_293819299cbf9a7022e18b56a874bb5c>@@@Z 10052a00     libucrt:onexit.obj
 0002:0000ea20       __sehtable$_terminate      10052a20     libucrt:terminate.obj
 0002:0000ea40       __sehtable$_raise          10052a40     libucrt:signal.obj
 0002:0000ea60       __sehtable$??$?RV<lambda_a048d3beccc847880fc8490e18b82769>@@AAV<lambda_ec61778202f4f5fc7e7711acc23c3bca>@@V<lambda_f7496a158712204296dd6628a163878e>@@@?$__crt_seh_guarded_call@P6AXH@Z@@QAEP6AXH@Z$$QAV<lambda_a048d3beccc847880fc8490e18b82769>@@AAV<lambda_ec61778202f4f5fc7e7711acc23c3bca>@@$$QAV<lambda_f7496a158712204296dd6628a163878e>@@@Z 10052a60     libucrt:signal.obj
 0002:0000ea80       __sehtable$??$?RV<lambda_9df27f884b057bc3edfc946cb5b7cf47>@@AAV<lambda_e69574bed617af4e071282c136b37893>@@V<lambda_cc0d902bcbbeb830f749456577db4721>@@@?$__crt_seh_guarded_call@X@@QAEX$$QAV<lambda_9df27f884b057bc3edfc946cb5b7cf47>@@AAV<lambda_e69574bed617af4e071282c136b37893>@@$$QAV<lambda_cc0d902bcbbeb830f749456577db4721>@@@Z 10052a80     libucrt:per_thread_data.obj
 0002:0000eaa0       __sehtable$??$?RV<lambda_3518db117f0e7cdb002338c5d3c47b6c>@@AAV<lambda_b2ea41f6bbb362cd97d94c6828d90b61>@@V<lambda_abdedf541bb04549bc734292b4a045d4>@@@?$__crt_seh_guarded_call@X@@QAEX$$QAV<lambda_3518db117f0e7cdb002338c5d3c47b6c>@@AAV<lambda_b2ea41f6bbb362cd97d94c6828d90b61>@@$$QAV<lambda_abdedf541bb04549bc734292b4a045d4>@@@Z 10052aa0     libucrt:per_thread_data.obj
 0002:0000eac0       __sehtable$??$?RV<lambda_51b6e8b1eb166f2a3faf91f424b38130>@@AAV<lambda_6250bd4b2a391816dd638c3bf72b0bcb>@@V<lambda_0b5a4a3e68152e1d9b943535f5f47bed>@@@?$__crt_seh_guarded_call@X@@QAEX$$QAV<lambda_51b6e8b1eb166f2a3faf91f424b38130>@@AAV<lambda_6250bd4b2a391816dd638c3bf72b0bcb>@@$$QAV<lambda_0b5a4a3e68152e1d9b943535f5f47bed>@@@Z 10052ac0     libucrt:per_thread_data.obj
 0002:0000eae0       __sehtable$??$?RV<lambda_5b71d36f03204c0beab531769a5b5694>@@AAV<lambda_be2b3da3f62db62e9dad5dc70221a656>@@V<lambda_8f9ce462984622f9bf76b59e2aaaf805>@@@?$__crt_seh_guarded_call@X@@QAEX$$QAV<lambda_5b71d36f03204c0beab531769a5b5694>@@AAV<lambda_be2b3da3f62db62e9dad5dc70221a656>@@$$QAV<lambda_8f9ce462984622f9bf76b59e2aaaf805>@@@Z 10052ae0     libucrt:per_thread_data.obj
 0002:0000eb00       __sehtable$___acrt_uninitialize_locale 10052b00     libucrt:wsetlocale.obj
 0002:0000eb20       __sehtable$??$?RV<lambda_70818de7b02deff9841e8b0962a60ed9>@@AAV<lambda_2af78c5f5901b1372d98f9ab3177dfa6>@@AAV<lambda_f51fe5fd7c79a33db34fc9310f277369>@@@?$__crt_seh_guarded_call@X@@QAEX$$QAV<lambda_70818de7b02deff9841e8b0962a60ed9>@@AAV<lambda_2af78c5f5901b1372d98f9ab3177dfa6>@@AAV<lambda_f51fe5fd7c79a33db34fc9310f277369>@@@Z 10052b20     libucrt:wsetlocale.obj
 0002:0000eb40       __sehtable$??$?RV<lambda_c76fdea48760d5f9368b465f31df4405>@@AAV<lambda_e378711a6f6581bf7f0efd7cdf97f5d9>@@V<lambda_e927a58b2a85c081d733e8c6192ae2d2>@@@?$__crt_seh_guarded_call@X@@QAEX$$QAV<lambda_c76fdea48760d5f9368b465f31df4405>@@AAV<lambda_e378711a6f6581bf7f0efd7cdf97f5d9>@@$$QAV<lambda_e927a58b2a85c081d733e8c6192ae2d2>@@@Z 10052b40     libucrt:wsetlocale.obj
 0002:0000eb60       __sehtable$___acrt_initialize_lowio 10052b60     libucrt:ioinit.obj
 0002:0000eb80       __sehtable$??$?RV<lambda_9227be29367c048ad7fd93a717dcb1a1>@@AAV<lambda_a463b7b0560cfcaf9b17f27c6ef46564>@@V<lambda_ccea11b5727ccf69be64f5f5d9a08d9f>@@@?$__crt_seh_guarded_call@H@@QAEH$$QAV<lambda_9227be29367c048ad7fd93a717dcb1a1>@@AAV<lambda_a463b7b0560cfcaf9b17f27c6ef46564>@@$$QAV<lambda_ccea11b5727ccf69be64f5f5d9a08d9f>@@@Z 10052b80     libucrt:winapi_thunks.obj
 0002:0000eba0       __sehtable$__fcloseall     10052ba0     libucrt:closeall.obj
 0002:0000ebc0       __sehtable$?__acrt_stdio_allocate_stream@@YA?AV__crt_stdio_stream@@XZ 10052bc0     libucrt:stream.obj
 0002:0000ebe0       __sehtable$??$?RV<lambda_123407a5e2ac06da108355a851863b7a>@@AAV<lambda_2fe9b910cf3cbf4a0ab98a02ba45b3ec>@@V<lambda_ae55bdf541ad94d75914d381c370e64d>@@@?$__crt_seh_guarded_call@H@@QAEH$$QAV<lambda_123407a5e2ac06da108355a851863b7a>@@AAV<lambda_2fe9b910cf3cbf4a0ab98a02ba45b3ec>@@$$QAV<lambda_ae55bdf541ad94d75914d381c370e64d>@@@Z 10052be0     libucrt:close.obj
 0002:0000ec00       __sehtable$__read          10052c00     libucrt:read.obj
 0002:0000ec20       __sehtable$??$?RV<lambda_61cee617f5178ae960314fd4d05640a0>@@AAV<lambda_6978c1fb23f02e42e1d9e99668cc68aa>@@V<lambda_9cd88cf8ad10232537feb2133f08c833>@@@?$__crt_seh_guarded_call@H@@QAEH$$QAV<lambda_61cee617f5178ae960314fd4d05640a0>@@AAV<lambda_6978c1fb23f02e42e1d9e99668cc68aa>@@$$QAV<lambda_9cd88cf8ad10232537feb2133f08c833>@@@Z 10052c20     libucrt:commit.obj
 0002:0000ec40       __sehtable$__write         10052c40     libucrt:write.obj
 0002:0000ec60       __sehtable$??$common_ftell@_J@@YA_JV__crt_stdio_stream@@@Z 10052c60     libucrt:ftell.obj
 0002:0000ec80       __sehtable$??$common_lseek@_J@@YA_JH_JH@Z 10052c80     libucrt:lseek.obj
 0002:0000eca0       __sehtable$___acrt_update_thread_multibyte_data 10052ca0     libucrt:mbctype.obj
 0002:0000ecc0       __sehtable$??$?RV<lambda_978dc153c237d78434369da87b74ff60>@@AAV<lambda_ad1ced32f4ac17aa236e5ef05d6b3b7c>@@V<lambda_4a8533e2866a575feecb8298ce776b0d>@@@?$__crt_seh_guarded_call@X@@QAEX$$QAV<lambda_978dc153c237d78434369da87b74ff60>@@AAV<lambda_ad1ced32f4ac17aa236e5ef05d6b3b7c>@@$$QAV<lambda_4a8533e2866a575feecb8298ce776b0d>@@@Z 10052cc0     libucrt:mbctype.obj
 0002:0000ece0       __sehtable$___acrt_update_thread_locale_data 10052ce0     libucrt:locale_refcounting.obj
 0002:0000ed00       __sehtable$__alloc_osfhnd  10052d00     libucrt:osfinfo.obj
 0002:0000ed20       __sehtable$___acrt_lowio_ensure_fh_exists 10052d20     libucrt:osfinfo.obj
 0002:0000ed40       __sehtable$??$common_sopen_dispatch@D@@YAHQBDHHHQAHH@Z 10052d40     libucrt:open.obj
 0002:0000ed60       __sehtable$__IsNonwritableInCurrentImage 10052d60     LIBCMT:pesect.obj
 0002:0000ed80       .edata                     10052d80     nodehun.exp
 0002:0000eda8       rgpv                       10052da8     nodehun.exp
 0002:0000edac       rgszName                   10052dac     nodehun.exp
 0002:0000edb0       rgwOrd                     10052db0     nodehun.exp
 0002:0000edb2       szName                     10052db2     nodehun.exp
 0002:0000edbf       $N00001                    10052dbf     nodehun.exp
 0002:0000f01c       .idata$6                   1005301c     kernel32:KERNEL32.dll
 0002:0000fb22       .idata$6                   10053b22     iojs:node.dll
 0003:00000000       ?init@std@@3JA             10055000     libcpmt:xlock.obj
 0003:00000008       ?atcount_cdecl@@3IA        10055008     libcpmt:iosptrs.obj
 0003:000000a0       ?__vcrt_flsindex@@3KA      100550a0     libvcruntime:per_thread_data.obj
 0003:00000168       _errno_no_memory           10055168     libucrt:errno.obj
 0003:0000016c       _doserrno_no_memory        1005516c     libucrt:errno.obj
 0003:000001e0       ___acrt_flsindex           100551e0     libucrt:per_thread_data.obj
 0003:000001e4       __ctype_loc_style          100551e4     libucrt:wsetlocale.obj
 0003:000003f0       _tzstd_program             100553f0     libucrt:timeset.obj
 0003:00000430       _tzdst_program             10055430     libucrt:timeset.obj
 0003:00000470       _tzname_states             10055470     libucrt:timeset.obj
 0003:00000478       ___rgctypeflag             10055478     libucrt:mbctype.obj
 0003:00000480       ___rgcode_page_info        10055480     libucrt:mbctype.obj
 0003:000009b0       __module                   100559b0     nodehun.obj
 0003:000009d8       ?koi8u_tbl@@3PAUcs_info@@A 100559d8     hunspell:csutil.obj
 0003:00000cd8       ?iso3_tbl@@3PAUcs_info@@A  10055cd8     hunspell:csutil.obj
 0003:00000fd8       ?iso1_tbl@@3PAUcs_info@@A  10055fd8     hunspell:csutil.obj
 0003:000012d8       ?cp1251_tbl@@3PAUcs_info@@A 100562d8     hunspell:csutil.obj
 0003:000015e0       ?lang2enc@@3PAUlang_map@@A 100565e0     hunspell:csutil.obj
 0003:000016c0       ?iso7_tbl@@3PAUcs_info@@A  100566c0     hunspell:csutil.obj
 0003:000019c0       ?iso2_tbl@@3PAUcs_info@@A  100569c0     hunspell:csutil.obj
 0003:00001cc0       ?iso14_tbl@@3PAUcs_info@@A 10056cc0     hunspell:csutil.obj
 0003:00001fc0       ?utf_lst@@3PAUunicode_info@@A 10056fc0     hunspell:csutil.obj
 0003:0001ecd0       ?iso8_tbl@@3PAUcs_info@@A  10073cd0     hunspell:csutil.obj
 0003:0001efd0       ?iso4_tbl@@3PAUcs_info@@A  10073fd0     hunspell:csutil.obj
 0003:0001f2d0       ?encds@@3PAUenc_entry@@A   100742d0     hunspell:csutil.obj
 0003:0001f380       ?iso10_tbl@@3PAUcs_info@@A 10074380     hunspell:csutil.obj
 0003:0001f680       ?iso13_tbl@@3PAUcs_info@@A 10074680     hunspell:csutil.obj
 0003:0001f980       ?koi8r_tbl@@3PAUcs_info@@A 10074980     hunspell:csutil.obj
 0003:0001fc80       ?iscii_devanagari_tbl@@3PAUcs_info@@A 10074c80     hunspell:csutil.obj
 0003:0001ff80       ?tis620_tbl@@3PAUcs_info@@A 10074f80     hunspell:csutil.obj
 0003:00020280       ?iso5_tbl@@3PAUcs_info@@A  10075280     hunspell:csutil.obj
 0003:00020580       ?iso15_tbl@@3PAUcs_info@@A 10075580     hunspell:csutil.obj
 0003:00020880       ?iso6_tbl@@3PAUcs_info@@A  10075880     hunspell:csutil.obj
 0003:00020b80       ?iso9_tbl@@3PAUcs_info@@A  10075b80     hunspell:csutil.obj
 0003:000212c8       ?initlocks@@3V_Init_locks@std@@A 100762c8     libcpmt:cout.obj
 0003:000212c9       ?init_cout@std@@3U_Init_cout@1@A 100762c9     libcpmt:cout.obj
 0003:00021320       ?fout@std@@3V?$basic_filebuf@DU?$char_traits@D@std@@@1@A 10076320     libcpmt:cout.obj
 0003:00021390       ?initlocks@std@@3V_Init_locks@1@A 10076390     libcpmt:xlock.obj
 0003:00021398       ?mtx@std@@3PAU_RTL_CRITICAL_SECTION@@A 10076398     libcpmt:xlock.obj
 0003:00021460       _global_locale             10076460     libcpmt:locale0.obj
 0003:00021464       ?_Fac_head@std@@3PAU_Fac_node@1@A 10076464     libcpmt:locale0.obj
 0003:0002147c       ?classic_locale@std@@3Vlocale@1@A 1007647c     libcpmt:locale0.obj
 0003:00021484       ?_Fac_tidy_reg@std@@3U_Fac_tidy_reg_t@1@B 10076484     libcpmt:locale0.obj
 0003:00021485       ?registered@?1??_Setgloballocale@locale@std@@CAXPAX@Z@4_NA 10076485     libcpmt:locale0.obj
 0003:0002148c       ?stdstr@std@@3PAPAVios_base@1@A 1007648c     libcpmt:ios.obj
 0003:000214b4       ?stdopens@std@@3PADA       100764b4     libcpmt:ios.obj
 0003:000214e0       ?atfuns_cdecl@@3PAP6AXXZA  100764e0     libcpmt:iosptrs.obj
 0003:00021508       ?initlocks@std@@3V_Init_locks@1@A 10076508     libcpmt:iosptrs.obj
 0003:00021509       ?init_atexit@@3U_Init_atexit@@A 10076509     libcpmt:iosptrs.obj
 0003:00021638       ?module_local_atexit_table@@3U_onexit_table_t@@A 10076638     LIBCMT:utility.obj
 0003:00021644       ?module_local_at_quick_exit_table@@3U_onexit_table_t@@A 10076644     LIBCMT:utility.obj
 0003:00021650       ?is_initialized_as_dll@@3_NA 10076650     LIBCMT:utility.obj
 0003:00021654       ?__proc_attached@@3HA      10076654     LIBCMT:dll_dllmain.obj
 0003:00021658       _GS_ExceptionRecord        10076658     LIBCMT:gs_report.obj
 0003:000216a8       _GS_ContextRecord          100766a8     LIBCMT:gs_report.obj
 0003:00021974       ?_Tss_mutex@@3U_RTL_CRITICAL_SECTION@@A 10076974     LIBCMT:thread_safe_statics.obj
 0003:0002198c       ?_Tss_cv@@3U_RTL_CONDITION_VARIABLE@@A 1007698c     LIBCMT:thread_safe_statics.obj
 0003:00021990       ?_Tss_event@@3PAXA         10076990     LIBCMT:thread_safe_statics.obj
 0003:00021994       ?encoded_sleep_condition_variable_cs@@3P6GHPAU_RTL_CONDITION_VARIABLE@@PAU_RTL_CRITICAL_SECTION@@K@ZA 10076994     LIBCMT:thread_safe_statics.obj
 0003:00021998       ?encoded_wake_all_condition_variable@@3P6GXPAU_RTL_CONDITION_VARIABLE@@@ZA 10076998     LIBCMT:thread_safe_statics.obj
 0003:000219c0       ?module_handles@@3PAPAUHINSTANCE__@@A 100769c0     libvcruntime:winapi_downlevel.obj
 0003:000219d0       ?encoded_function_pointers@@3PAPAXA 100769d0     libvcruntime:winapi_downlevel.obj
 0003:000219f8       ?__vcrt_startup_thread_ptd@@3U__vcrt_ptd@@A 100769f8     libvcruntime:per_thread_data.obj
 0003:00021a20       ___vcrt_lock_table         10076a20     libvcruntime:locks.obj
 0003:00021a38       ___vcrt_locks_initialized  10076a38     libvcruntime:locks.obj
 0003:00021a64       ?heap@@3V_HeapManager@@A   10076a64     libvcruntime:undname.obj
 0003:00021a78       ___acrt_invalid_parameter_handler 10076a78     libucrt:invalid_parameter.obj
 0003:00021a88       _source_frequency          10076a88     libucrt:clock.obj
 0003:00021a90       _start_count               10076a90     libucrt:clock.obj
 0003:00021a98       ___acrt_lock_table         10076a98     libucrt:locks.obj
 0003:00021bd0       ___acrt_locks_initialized  10076bd0     libucrt:locks.obj
 0003:00021bdc       ___acrt_new_handler        10076bdc     libucrt:new_handler.obj
 0003:00021be0       _c_termination_complete    10076be0     libucrt:exit.obj
 0003:00021be4       _thread_local_exit_callback_func 10076be4     libucrt:exit.obj
 0003:00021be8       ?c_exit_complete@?5??common_exit@@YAXHW4_crt_exit_cleanup_mode@@W4_crt_exit_return_mode@@@Z@4_NA 10076be8     libucrt:exit.obj
 0003:00021bf0       ?program_name@?5???$common_configure_argv@D@@YAHW4_crt_argv_mode@@@Z@4PADA 10076bf0     libucrt:argv_parsing.obj
 0003:00021d20       ___acrt_app_type           10076d20     libucrt:report_runtime_error.obj
 0003:00021d24       ___acrt_error_mode         10076d24     libucrt:set_error_mode.obj
 0003:00021d28       _ctrlc_action              10076d28     libucrt:signal.obj
 0003:00021d2c       _ctrlbreak_action          10076d2c     libucrt:signal.obj
 0003:00021d30       _abort_action              10076d30     libucrt:signal.obj
 0003:00021d34       _term_action               10076d34     libucrt:signal.obj
 0003:00021d40       _enable_percent_n          10076d40     libucrt:printf_count_output.obj
 0003:00021f58       _module_handles            10076f58     libucrt:winapi_thunks.obj
 0003:00021fa8       _encoded_function_pointers 10076fa8     libucrt:winapi_thunks.obj
 0003:00022028       ?static_enum_proc@?1??enum_system_locales_ex_nolock@@YAHQ6GHPA_WKJ@Z@Z@4P6GH0KJ@ZA 10077028     libucrt:winapi_thunks.obj
 0003:0002202c       ?state_cache@?1??__acrt_is_packaged_app@@9@4JA 1007702c     libucrt:winapi_thunks.obj
 0003:00022030       ___acrt_global_new_mode    10077030     libucrt:new_mode.obj
 0003:00022048       __tzname                   10077048     libucrt:timeset.obj
 0003:00022050       _tz_api_used               10077050     libucrt:tzset.obj
 0003:00022058       _tz_info                   10077058     libucrt:tzset.obj
 0003:0002211c       _fSystemSet                1007711c     libucrt:mbctype.obj
 0003:00022120       ?initialized@?1??__acrt_initialize_multibyte@@9@4_NA 10077120     libucrt:mbctype.obj
 0003:0002213c       _user_matherr              1007713c     libucrt:matherr.obj
 0003:00022144       __pmatherr_set             10077144     libucrt:libm_error.obj
 0003:00022158       ?utf_tbl@@3PAUunicode_info2@@A 10077158     hunspell:csutil.obj
 0003:0002215c       ?utf_tbl_count@@3HA        1007715c     hunspell:csutil.obj
 0004:00000000       __guard_fids____dcrt_uninitialize_environments_nolock 10078000     libucrt:environment_initialization.obj
 0004:00000008       __guard_fids__             10078008     libucrt:initialization.obj
 0004:00000068       __guard_fids_??$common_show_message_box@_W@@YAHQB_W0I@Z 10078068     libucrt:crtmbox.obj
 0004:0000006c       __guard_fids____acrt_initialize_ptd 1007806c     libucrt:per_thread_data.obj
 0004:00000070       __guard_fids__             10078070     libucrt:wsetlocale.obj
 0004:00000088       __guard_fids__             10078088     libucrt:stdio_initializer.obj
 0004:0000008c       __guard_fids__             1007808c     libucrt:stdio_initializer.obj
 0004:00000090       __guard_fids_??$?RV<lambda_9227be29367c048ad7fd93a717dcb1a1>@@AAV<lambda_a463b7b0560cfcaf9b17f27c6ef46564>@@V<lambda_ccea11b5727ccf69be64f5f5d9a08d9f>@@@?$__crt_seh_guarded_call@H@@QAEH$$QAV<lambda_9227be29367c048ad7fd93a717dcb1a1>@@AAV<lambda_a463b7b0560cfcaf9b17f27c6ef46564>@@$$QAV<lambda_ccea11b5727ccf69be64f5f5d9a08d9f>@@@Z 10078090     libucrt:winapi_thunks.obj
 0004:00000094       __guard_fids__             10078094     libucrt:clock_initializer.obj
 0004:00000098       __guard_fids_??$expand_argument_wildcards@D@@YAHQAD0AAV?$argument_list@D@?A0xb0e4b824@@@Z 10078098     libucrt:argv_wildcards.obj
 0004:0000009c       __guard_fids__             1007809c     libucrt:locale_initializer.obj
 0004:000000a0       __guard_fids__GetLocaleNameFromLangCountry 100780a0     libucrt:get_qualified_locale.obj
 0004:000000a4       __guard_fids__GetLocaleNameFromLanguage 100780a4     libucrt:get_qualified_locale.obj
 0004:000000a8       __guard_fids__GetLcidFromLangCountry 100780a8     libucrt:getqloc_downlevel.obj
 0004:000000ac       __guard_fids__GetLcidFromLanguage 100780ac     libucrt:getqloc_downlevel.obj
 0004:000000b0       __guard_fids__GetLcidFromCountry 100780b0     libucrt:getqloc_downlevel.obj
 0004:000000b4       __guard_fids__             100780b4     libucrt:sse2_initializer.obj
 0004:000000b8       __guard_fids____libm_error_support 100780b8     libucrt:libm_error.obj
 0004:000000bc       __guard_fids__             100780bc     libucrt:timeset_initializer.obj
 0004:000000c0       __guard_fids__             100780c0     libucrt:multibyte_initializer.obj
 0004:000000c4       __guard_fids__             100780c4     libucrt:console_output_initializer.obj
 0004:000000c8       __guard_fids__             100780c8     libcpmt:xthrow.obj
 0004:000000d0       __guard_fids__             100780d0     libcpmt:xthrow.obj
 0004:000000d8       __guard_fids__             100780d8     libcpmt:xthrow.obj
 0004:000000e0       __guard_fids__             100780e0     libcpmt:xthrow.obj
 0004:000000e8       __guard_fids__             100780e8     libcpmt:xthrow.obj
 0004:000000f0       __guard_fids__             100780f0     libcpmt:xthrow.obj
 0004:000000f8       __guard_fids__             100780f8     libcpmt:xthrow.obj
 0004:000000fc       __guard_fids__             100780fc     libcpmt:xthrow.obj
 0004:00000100       __guard_fids__             10078100     libcpmt:xthrow.obj
 0004:00000104       __guard_fids__             10078104     libcpmt:xthrow.obj
 0004:00000108       __guard_fids__             10078108     libcpmt:xthrow.obj
 0004:0000010c       __guard_fids__             1007810c     libcpmt:xthrow.obj
 0004:00000110       __guard_fids__             10078110     libcpmt:xthrow.obj
 0004:00000114       __guard_fids__             10078114     libcpmt:xthrow.obj
 0004:00000118       __guard_fids__             10078118     libcpmt:xthrow.obj
 0004:0000011c       __guard_fids__             1007811c     libcpmt:xthrow.obj
 0004:00000120       __guard_fids_??__Einitlocks@@YAXXZ 10078120     libcpmt:cout.obj
 0004:00000124       __guard_fids_??__Efout@std@@YAXXZ 10078124     libcpmt:cout.obj
 0004:00000128       __guard_fids_??__Ecout@std@@YAXXZ 10078128     libcpmt:cout.obj
 0004:0000012c       __guard_fids__             1007812c     libcpmt:cout.obj
 0004:00000134       __guard_fids__             10078134     libcpmt:cout.obj
 0004:00000140       __guard_fids__             10078140     libcpmt:cout.obj
 0004:0000016c       __guard_fids__             1007816c     libcpmt:cout.obj
 0004:00000184       __guard_fids__             10078184     libcpmt:cout.obj
 0004:0000018c       __guard_fids__             1007818c     libcpmt:cout.obj
 0004:000001a4       __guard_fids__             100781a4     libcpmt:cout.obj
 0004:000001ac       __guard_fids__             100781ac     libcpmt:cout.obj
 0004:000001b0       __guard_fids__             100781b0     libcpmt:cout.obj
 0004:000001ec       __guard_fids__             100781ec     libcpmt:cout.obj
 0004:00000228       __guard_fids__             10078228     libcpmt:cout.obj
 0004:0000022c       __guard_fids__             1007822c     libcpmt:cout.obj
 0004:00000230       __guard_fids__             10078230     libcpmt:cout.obj
 0004:00000258       __guard_fids__             10078258     libcpmt:cout.obj
 0004:0000025c       __guard_fids__             1007825c     libcpmt:cout.obj
 0004:00000260       __guard_fids__             10078260     libcpmt:cout.obj
 0004:00000264       __guard_fids__             10078264     libcpmt:cout.obj
 0004:00000268       __guard_fids__             10078268     libcpmt:cout.obj
 0004:0000026c       __guard_fids__             1007826c     libcpmt:cout.obj
 0004:00000270       __guard_fids_??__Einitlocks@std@@YAXXZ 10078270     libcpmt:xlock.obj
 0004:00000274       __guard_fids__             10078274     libcpmt:xlock.obj
 0004:00000278       __guard_fids_??__E_Fac_tidy_reg@std@@YAXXZ 10078278     libcpmt:locale0.obj
 0004:0000027c       __guard_fids_?_Setgloballocale@locale@std@@CAXPAX@Z 1007827c     libcpmt:locale0.obj
 0004:00000280       __guard_fids_??__Eclassic_locale@std@@YAXXZ 10078280     libcpmt:locale0.obj
 0004:00000284       __guard_fids__             10078284     libcpmt:locale0.obj
 0004:00000290       __guard_fids__             10078290     libcpmt:locale0.obj
 0004:00000294       __guard_fids__             10078294     libcpmt:locale0.obj
 0004:00000298       __guard_fids_??__Einitlocks@std@@YAXXZ 10078298     libcpmt:iosptrs.obj
 0004:0000029c       __guard_fids_??__Einit_atexit@@YAXXZ 1007829c     libcpmt:iosptrs.obj
 0004:000002a0       __guard_fids__             100782a0     libcpmt:iosptrs.obj
 0004:000002a4       __guard_fids__             100782a4     libcpmt:iosptrs.obj
 0004:000002a8       __guard_fids__             100782a8     libcpmt:winapisupp.obj
 0004:000002ac       __guard_fids_?dllmain_crt_process_attach@@YAHQAUHINSTANCE__@@QAX@Z 100782ac     LIBCMT:dll_dllmain.obj
 0004:000002b4       __guard_fids_?dllmain_dispatch@@YAHQAUHINSTANCE__@@KQAX@Z 100782b4     LIBCMT:dll_dllmain.obj
 0004:000002b8       __guard_fids__             100782b8     LIBCMT:thread_safe_statics.obj
 0004:000002bc       __guard_fids_?__scrt_initialize_thread_safe_statics@@YAHXZ 100782bc     LIBCMT:thread_safe_statics.obj
 0004:000002c0       __guard_fids__             100782c0     LIBCMT:std_type_info_static.obj
 0004:000002c4       __guard_fids__             100782c4     LIBCMT:throw_bad_alloc.obj
 0004:000002cc       __guard_fids__             100782cc     LIBCMT:throw_bad_alloc.obj
 0004:000002d0       __guard_fids__             100782d0     LIBCMT:throw_bad_alloc.obj
 0004:000002d4       __guard_fids__             100782d4     LIBCMT:guard_support.obj
 0004:000002d8       __guard_fids__             100782d8     libvcruntime:frame.obj
 0004:000002dc       __guard_fids__             100782dc     libvcruntime:frame.obj
 0004:000002e4       __guard_fids__             100782e4     libvcruntime:frame.obj
 0004:000002e8       __guard_fids__             100782e8     libvcruntime:frame.obj
 0004:000002ec       __guard_fids____vcrt_initialize_ptd 100782ec     libvcruntime:per_thread_data.obj
 0006:00000060       $R000000                   1007a060     * linker generated manifest res *

 Exports

  ordinal    name

        1    __register_nodehun_
               exported name: _register_nodehun_
